Certificate Request:
    Data:
        Version: 1 (0x0)
        Subject: C = dk, O = cini, GN = Giovanni, SN = Mazzeo, CN = cini.org.dk
        Subject Public Key Info:
            Public Key Algorithm: rsaEncryption
                RSA Public-Key: (2048 bit)
                Modulus:
                    00:da:f8:56:27:ca:72:c9:c1:4f:0e:94:0d:6b:5a:
                    51:ac:86:54:6d:b6:f0:ca:a2:6d:93:97:ce:19:5a:
                    15:2f:16:d3:b7:17:14:ef:e5:54:24:51:94:7e:34:
                    38:17:cb:c3:5a:fe:ef:95:8e:82:23:36:ca:e9:f9:
                    77:35:1d:74:fa:14:93:6d:88:31:f9:14:40:a6:b1:
                    30:1c:30:ee:f4:d7:da:7d:4c:7c:f9:5d:39:e1:ba:
                    db:0d:02:d0:dd:3a:4f:18:4d:bd:62:54:97:06:e9:
                    b3:5e:8a:25:37:15:3d:2d:09:7b:3f:1f:f7:dc:44:
                    c4:08:c7:94:f4:9d:2f:ff:65:eb:6f:d0:02:d7:bb:
                    d1:01:08:33:62:b9:01:36:a2:23:45:ab:ac:56:98:
                    cd:22:43:72:e3:f1:4c:e0:5f:ad:5c:69:53:de:d8:
                    d5:c0:22:c0:22:dc:fa:14:26:5d:7a:48:c8:55:8a:
                    1a:f4:de:7e:df:32:f9:7e:f6:03:40:75:0e:b3:43:
                    91:9b:68:e4:0d:f1:36:49:73:a8:16:89:b7:52:5d:
                    3f:2c:43:ca:3c:2b:85:ed:29:d7:12:68:52:bf:34:
                    2e:70:d6:33:ae:c6:56:9d:cc:61:57:df:09:43:c8:
                    c3:da:64:80:f1:c2:5e:98:ee:8d:ff:97:b7:fc:4a:
                    6b:d7
                Exponent: 65537 (0x10001)
        Attributes:
        Requested Extensions:
            X509v3 Key Usage: critical
                Key Encipherment
            X509v3 Extended Key Usage: 
                TLS Web Server Authentication
            X509v3 Basic Constraints: critical
                CA:FALSE
            X509v3 Subject Key Identifier: 
                61:23:AF:6D:5E:4B:CE:A3:5D:E9:4F:F8:9C:96:82:48:86:FA:41:4B
    Signature Algorithm: sha512WithRSAEncryption
         0e:2d:a2:ba:d3:b9:4d:1f:27:01:4d:7c:5f:9a:1f:4b:f8:80:
         15:60:82:a9:69:c4:47:46:37:71:ed:81:e2:7c:e2:9c:25:34:
         27:38:93:d0:b0:63:8d:3e:34:f6:43:d2:39:b8:8f:66:c1:74:
         b7:f0:56:62:e8:dc:84:61:54:f5:00:41:8f:5d:b7:4d:28:c1:
         aa:e0:d6:ba:d9:0a:15:ed:6d:11:25:8f:4e:c5:9c:c4:f3:06:
         10:2b:3e:8a:dc:b5:58:a5:74:fa:61:c8:09:ca:e4:70:fd:0b:
         a6:1b:89:58:99:0a:eb:94:bc:20:3b:c2:7b:bf:5a:cc:b8:64:
         2a:88:bd:bb:38:35:8f:6c:36:e9:8e:61:9d:df:54:93:bd:2f:
         01:bf:cf:c3:bd:a2:4a:36:76:7b:08:95:81:e9:2a:af:1a:a6:
         c0:51:af:16:f7:32:fe:5e:b4:2c:bc:cf:73:c9:2f:3a:b8:42:
         7a:9a:37:c3:d5:d2:46:a0:4e:f3:d2:f3:cc:ef:dd:d4:c6:2f:
         7a:14:f2:f2:95:51:87:6b:24:1d:72:51:fc:4a:9a:8e:43:5f:
         65:76:7e:42:87:77:cd:98:64:08:cb:45:1c:6e:23:83:ef:26:
         51:a0:54:21:34:37:18:47:bc:4a:3e:34:cc:71:b9:e8:44:fd:
         ac:ad:b2:67
-----BEGIN CERTIFICATE REQUEST-----
MIIC/jCCAeYCAQAwVjELMAkGA1UEBhMCZGsxDTALBgNVBAoMBGNpbmkxETAPBgNV
BCoMCEdpb3Zhbm5pMQ8wDQYDVQQEDAZNYXp6ZW8xFDASBgNVBAMMC2Npbmkub3Jn
LmRrMIIBIjANBgkqhkiG9w0BAQEFAAOCAQ8AMIIBCgKCAQEA2vhWJ8pyycFPDpQN
a1pRrIZUbbbwyqJtk5fOGVoVLxbTtxcU7+VUJFGUfjQ4F8vDWv7vlY6CIzbK6fl3
NR10+hSTbYgx+RRAprEwHDDu9NfafUx8+V054brbDQLQ3TpPGE29YlSXBumzXool
NxU9LQl7Px/33ETECMeU9J0v/2Xrb9AC17vRAQgzYrkBNqIjRausVpjNIkNy4/FM
4F+tXGlT3tjVwCLAItz6FCZdekjIVYoa9N5+3zL5fvYDQHUOs0ORm2jkDfE2SXOo
Fom3Ul0/LEPKPCuF7SnXEmhSvzQucNYzrsZWncxhV98JQ8jD2mSA8cJemO6N/5e3
/Epr1wIDAQABoGMwYQYJKoZIhvcNAQkOMVQwUjAOBgNVHQ8BAf8EBAMCBSAwEwYD
VR0lBAwwCgYIKwYBBQUHAwEwDAYDVR0TAQH/BAIwADAdBgNVHQ4EFgQUYSOvbV5L
zqNd6U/4nJaCSIb6QUswDQYJKoZIhvcNAQENBQADggEBAA4torrTuU0fJwFNfF+a
H0v4gBVggqlpxEdGN3HtgeJ84pwlNCc4k9CwY40+NPZD0jm4j2bBdLfwVmLo3IRh
VPUAQY9dt00owarg1rrZChXtbRElj07FnMTzBhArPorctVildPphyAnK5HD9C6Yb
iViZCuuUvCA7wnu/Wsy4ZCqIvbs4NY9sNumOYZ3fVJO9LwG/z8O9oko2dnsIlYHp
Kq8apsBRrxb3Mv5etCy8z3PJLzq4QnqaN8PV0kagTvPS88zv3dTGL3oU8vKVUYdr
JB1yUfxKmo5DX2V2fkKHd82YZAjLRRxuI4PvJlGgVCE0NxhHvEo+NMxxuehE/ayt
smc=
-----END CERTIFICATE REQUEST-----
