Certificate Request:
    Data:
        Version: 1 (0x0)
        Subject: C = dk, O = cini, GN = Giovanni, SN = Mazzeo, CN = cini.org.dk
        Subject Public Key Info:
            Public Key Algorithm: rsaEncryption
                RSA Public-Key: (2048 bit)
                Modulus:
                    00:db:89:fb:79:46:af:de:9c:07:68:db:0a:be:d7:
                    4a:60:31:5c:b3:01:eb:2c:0d:ec:b1:9e:04:18:57:
                    ec:13:ee:9a:de:1f:d4:59:d0:80:e6:38:03:b0:7d:
                    6a:72:56:53:3f:d1:ad:65:45:7c:07:95:51:d1:ce:
                    de:64:d7:da:65:98:c5:a2:19:2b:68:fc:3d:96:04:
                    23:9c:90:cf:02:52:19:2c:76:cb:87:62:d7:74:05:
                    9a:9e:2b:d4:e9:a3:fb:8e:cf:65:5d:d1:8e:37:6d:
                    6c:83:43:95:78:01:eb:2d:16:eb:ef:00:6a:3d:02:
                    65:cb:a1:c0:08:9b:3e:51:04:5e:55:a7:a8:15:83:
                    a6:27:e9:ef:9f:11:e8:ce:a9:92:48:ec:81:99:85:
                    02:30:90:e1:55:95:92:e9:a3:ec:1d:24:b6:24:13:
                    2b:ee:c9:ae:60:ff:d0:51:43:01:b7:ec:d1:bc:47:
                    c7:41:88:26:a4:ba:8b:82:72:71:20:da:4d:11:08:
                    8c:32:df:6b:8a:43:d5:da:8e:3b:27:3e:b3:55:3a:
                    e7:d2:cb:32:a0:dc:55:19:42:51:80:c8:2d:65:5c:
                    f7:ae:70:08:55:17:99:04:13:49:f5:e2:ec:97:b2:
                    f3:0a:d5:0d:b0:0d:1e:0e:4c:aa:a1:07:93:0d:f5:
                    ee:73
                Exponent: 65537 (0x10001)
        Attributes:
        Requested Extensions:
            X509v3 Key Usage: critical
                Digital Signature, Non Repudiation
            X509v3 Basic Constraints: critical
                CA:FALSE
            X509v3 Subject Key Identifier: 
                28:32:E3:08:F9:5A:5C:48:DD:7F:28:30:88:F4:76:31:B6:22:9C:E6
    Signature Algorithm: sha512WithRSAEncryption
         5f:bf:ca:cd:3a:3d:b8:68:aa:8d:3b:34:f2:77:ea:c6:fa:4d:
         a0:80:1d:83:0a:a2:95:a8:67:a8:d2:dc:94:c7:ed:7e:43:52:
         d3:8b:dc:bc:0b:9e:e5:fc:d0:d0:53:5a:c4:76:70:51:21:4b:
         53:a8:9e:6f:d3:63:e4:0c:56:89:75:ce:ac:f1:e1:af:95:f7:
         06:23:c8:71:83:73:ed:00:c1:3c:fb:8f:fc:aa:8c:a0:e3:ef:
         a2:7c:7f:18:b5:4c:ff:c9:0a:80:8c:33:4e:f1:16:dc:6b:3c:
         0a:87:5f:89:b0:f3:b1:cd:9a:73:3f:60:27:b9:39:96:fd:ee:
         32:90:d8:09:8d:48:64:26:24:62:af:4f:3e:a2:37:e3:23:43:
         0c:7b:78:38:96:bb:90:a8:e2:28:f0:24:37:0b:24:91:19:6b:
         1f:f8:a0:9c:5b:20:e3:9c:67:1b:47:c9:63:ea:65:13:79:0e:
         85:b1:d3:b4:5d:9e:51:98:e2:97:f4:9a:72:ec:fc:0d:56:bc:
         34:24:69:b8:1c:73:43:53:fe:0d:75:1d:29:b4:ae:ae:9b:fd:
         63:72:bb:75:5d:bb:c6:00:e7:62:db:de:a4:22:ed:5a:b8:13:
         17:b9:84:9c:91:e0:e6:f5:8b:3c:18:2c:8d:67:01:7d:c0:0f:
         8a:e5:22:7f
-----BEGIN CERTIFICATE REQUEST-----
MIIC6TCCAdECAQAwVjELMAkGA1UEBhMCZGsxDTALBgNVBAoMBGNpbmkxETAPBgNV
BCoMCEdpb3Zhbm5pMQ8wDQYDVQQEDAZNYXp6ZW8xFDASBgNVBAMMC2Npbmkub3Jn
LmRrMIIBIjANBgkqhkiG9w0BAQEFAAOCAQ8AMIIBCgKCAQEA24n7eUav3pwHaNsK
vtdKYDFcswHrLA3ssZ4EGFfsE+6a3h/UWdCA5jgDsH1qclZTP9GtZUV8B5VR0c7e
ZNfaZZjFohkraPw9lgQjnJDPAlIZLHbLh2LXdAWanivU6aP7js9lXdGON21sg0OV
eAHrLRbr7wBqPQJly6HACJs+UQReVaeoFYOmJ+nvnxHozqmSSOyBmYUCMJDhVZWS
6aPsHSS2JBMr7smuYP/QUUMBt+zRvEfHQYgmpLqLgnJxINpNEQiMMt9rikPV2o47
Jz6zVTrn0ssyoNxVGUJRgMgtZVz3rnAIVReZBBNJ9eLsl7LzCtUNsA0eDkyqoQeT
DfXucwIDAQABoE4wTAYJKoZIhvcNAQkOMT8wPTAOBgNVHQ8BAf8EBAMCBsAwDAYD
VR0TAQH/BAIwADAdBgNVHQ4EFgQUKDLjCPlaXEjdfygwiPR2MbYinOYwDQYJKoZI
hvcNAQENBQADggEBAF+/ys06Pbhoqo07NPJ36sb6TaCAHYMKopWoZ6jS3JTH7X5D
UtOL3LwLnuX80NBTWsR2cFEhS1Oonm/TY+QMVol1zqzx4a+V9wYjyHGDc+0AwTz7
j/yqjKDj76J8fxi1TP/JCoCMM07xFtxrPAqHX4mw87HNmnM/YCe5OZb97jKQ2AmN
SGQmJGKvTz6iN+MjQwx7eDiWu5Co4ijwJDcLJJEZax/4oJxbIOOcZxtHyWPqZRN5
DoWx07RdnlGY4pf0mnLs/A1WvDQkabgcc0NT/g11HSm0rq6b/WNyu3Vdu8YA52Lb
3qQi7Vq4Exe5hJyR4Ob1izwYLI1nAX3AD4rlIn8=
-----END CERTIFICATE REQUEST-----
