Certificate Request:
    Data:
        Version: 1 (0x0)
        Subject: C = dk, O = cini, GN = Giovanni, SN = Mazzeo, CN = cini.org.dk
        Subject Public Key Info:
            Public Key Algorithm: rsaEncryption
                RSA Public-Key: (2048 bit)
                Modulus:
                    00:dc:76:a9:32:d5:23:aa:80:2d:bd:db:cd:50:2d:
                    96:ce:31:9e:d4:66:9e:ce:87:b8:34:89:9d:a9:ab:
                    e4:df:1b:7a:c8:f0:64:58:9f:56:85:9c:43:8d:54:
                    4f:a0:3f:c4:45:1e:91:d4:61:eb:3c:a4:97:02:b5:
                    51:ae:03:5e:4f:65:87:85:9c:d8:94:d3:8a:44:fc:
                    c0:8c:b6:30:cc:f5:79:77:41:25:c5:d4:03:41:b7:
                    d8:34:ff:fc:87:30:2f:18:2d:22:f3:52:2d:bb:fd:
                    65:10:ae:b8:b5:88:96:85:48:cc:54:47:b7:b1:0c:
                    f5:11:91:84:0c:43:02:38:b6:35:38:c6:24:01:bf:
                    ce:bd:37:fb:41:1c:48:62:9e:19:bb:41:83:b0:25:
                    f9:84:e0:ea:d6:44:48:e1:15:5a:b3:60:af:06:cf:
                    51:b5:a3:24:ff:d6:d3:a3:59:0c:89:c3:e2:7b:f1:
                    39:f2:26:3c:0e:8d:b9:b0:ff:e1:00:a1:ad:84:24:
                    50:10:e0:81:c1:ea:81:b0:93:d2:27:a8:43:0a:74:
                    10:23:48:66:71:da:da:98:04:b3:07:ab:9a:9b:cd:
                    c7:6c:ce:1a:43:39:7a:7f:6a:6d:ae:09:29:77:ec:
                    d5:87:12:c6:f4:14:2a:7e:9b:7e:b9:66:68:cd:0a:
                    75:67
                Exponent: 65537 (0x10001)
        Attributes:
        Requested Extensions:
            X509v3 Key Usage: critical
                Key Encipherment
            X509v3 Extended Key Usage: 
                TLS Web Server Authentication
            X509v3 Basic Constraints: critical
                CA:FALSE
            X509v3 Subject Key Identifier: 
                EF:98:6D:40:99:E0:A0:1C:82:EB:0A:E2:2D:C8:F9:91:5C:F5:58:B5
    Signature Algorithm: sha512WithRSAEncryption
         cd:a2:66:4b:8e:f9:96:47:cb:3b:f9:d6:35:e3:6f:68:31:ce:
         e0:e5:25:71:f0:e3:8b:4e:13:62:e7:7c:43:3d:ce:71:64:a1:
         ed:8e:51:3a:98:15:61:26:ef:51:90:a7:3a:87:f2:65:da:53:
         96:8c:58:bc:11:6a:e2:64:ab:50:df:1c:27:42:56:f0:11:c3:
         9d:ae:28:5d:9e:87:63:fb:12:66:3b:7d:d4:d6:61:db:00:61:
         f3:c2:05:80:6a:2a:83:d8:04:64:06:77:ce:0c:94:4e:b9:45:
         bb:00:7f:29:18:eb:9c:91:3e:d8:d7:ba:8e:3d:4d:3e:3c:ed:
         c3:27:12:b8:89:ff:28:2d:2e:a2:f5:76:a6:18:56:46:6e:d3:
         b3:0e:cf:4a:21:6b:83:55:6e:15:60:0a:da:25:67:f4:f5:f9:
         50:2b:9d:6a:88:3e:8c:62:4e:9f:ce:3b:b7:b1:76:fb:89:32:
         36:32:6b:0a:68:11:b9:a2:59:5a:11:e9:9d:83:07:af:6d:7e:
         62:d5:14:b6:da:d0:2a:fe:07:14:53:7e:d4:ae:b7:c5:7b:df:
         3f:23:bb:ed:1c:10:4b:f6:62:95:de:27:36:95:78:d7:a4:55:
         c1:cf:38:c1:f0:36:99:a8:28:30:3d:b5:20:a5:91:c2:00:41:
         0c:d1:bc:6a
-----BEGIN CERTIFICATE REQUEST-----
MIIC/jCCAeYCAQAwVjELMAkGA1UEBhMCZGsxDTALBgNVBAoMBGNpbmkxETAPBgNV
BCoMCEdpb3Zhbm5pMQ8wDQYDVQQEDAZNYXp6ZW8xFDASBgNVBAMMC2Npbmkub3Jn
LmRrMIIBIjANBgkqhkiG9w0BAQEFAAOCAQ8AMIIBCgKCAQEA3HapMtUjqoAtvdvN
UC2WzjGe1Gaezoe4NImdqavk3xt6yPBkWJ9WhZxDjVRPoD/ERR6R1GHrPKSXArVR
rgNeT2WHhZzYlNOKRPzAjLYwzPV5d0ElxdQDQbfYNP/8hzAvGC0i81Itu/1lEK64
tYiWhUjMVEe3sQz1EZGEDEMCOLY1OMYkAb/OvTf7QRxIYp4Zu0GDsCX5hODq1kRI
4RVas2CvBs9RtaMk/9bTo1kMicPie/E58iY8Do25sP/hAKGthCRQEOCBweqBsJPS
J6hDCnQQI0hmcdramASzB6uam83HbM4aQzl6f2ptrgkpd+zVhxLG9BQqfpt+uWZo
zQp1ZwIDAQABoGMwYQYJKoZIhvcNAQkOMVQwUjAOBgNVHQ8BAf8EBAMCBSAwEwYD
VR0lBAwwCgYIKwYBBQUHAwEwDAYDVR0TAQH/BAIwADAdBgNVHQ4EFgQU75htQJng
oByC6wriLcj5kVz1WLUwDQYJKoZIhvcNAQENBQADggEBAM2iZkuO+ZZHyzv51jXj
b2gxzuDlJXHw44tOE2LnfEM9znFkoe2OUTqYFWEm71GQpzqH8mXaU5aMWLwRauJk
q1DfHCdCVvARw52uKF2eh2P7EmY7fdTWYdsAYfPCBYBqKoPYBGQGd84MlE65RbsA
fykY65yRPtjXuo49TT487cMnEriJ/ygtLqL1dqYYVkZu07MOz0oha4NVbhVgCtol
Z/T1+VArnWqIPoxiTp/OO7exdvuJMjYyawpoEbmiWVoR6Z2DB69tfmLVFLba0Cr+
BxRTftSut8V73z8ju+0cEEv2YpXeJzaVeNekVcHPOMHwNpmoKDA9tSClkcIAQQzR
vGo=
-----END CERTIFICATE REQUEST-----
