Certificate Request:
    Data:
        Version: 1 (0x0)
        Subject: C = dk, O = cini, GN = Giovanni, SN = Mazzeo, CN = cini.org.dk
        Subject Public Key Info:
            Public Key Algorithm: rsaEncryption
                RSA Public-Key: (2048 bit)
                Modulus:
                    00:c1:18:d2:45:3e:81:1a:74:c7:49:31:06:ad:64:
                    38:1c:3b:97:8b:a6:00:bc:05:ed:d0:a2:6c:3b:7d:
                    79:9c:68:3b:22:3e:b8:f2:9f:b4:3a:90:8c:60:74:
                    f4:6c:03:63:20:67:67:bb:72:80:e9:4f:d3:0c:96:
                    1e:76:32:17:e9:2d:b1:97:7e:0a:d9:3b:49:77:24:
                    52:00:d1:f5:f7:8e:16:cc:a6:25:98:5d:6c:d5:2b:
                    3a:ad:78:1a:b1:a1:5c:2e:55:42:ec:0f:50:d8:bc:
                    f4:db:76:d7:18:be:40:8a:0a:1c:db:04:50:41:9c:
                    4e:58:1d:f5:13:27:61:86:14:1d:1e:84:57:ff:f9:
                    55:79:c2:e3:53:9c:19:62:57:f5:c6:09:3c:b9:4d:
                    6b:00:47:4a:09:c5:fb:51:be:58:e6:be:ef:4d:f0:
                    f5:dd:df:c8:59:ad:54:1b:f3:9e:35:7a:be:7f:47:
                    2d:66:38:49:e3:ae:3f:b8:53:f4:0d:8c:e4:75:bd:
                    b1:97:a2:a6:0e:8a:82:32:12:64:96:2c:bc:29:6c:
                    2d:16:20:a0:8b:64:c1:4b:57:a0:a5:99:9d:04:f2:
                    99:e8:23:1e:3e:1c:21:ef:31:bb:5f:14:1f:87:6c:
                    c2:61:b9:76:dc:e9:24:d9:a3:a3:83:f1:b4:74:66:
                    ff:33
                Exponent: 65537 (0x10001)
        Attributes:
        Requested Extensions:
            X509v3 Key Usage: critical
                Digital Signature
            X509v3 Extended Key Usage: 
                TLS Web Client Authentication
            X509v3 Basic Constraints: critical
                CA:FALSE
            X509v3 Subject Key Identifier: 
                F2:AE:A8:53:7F:38:A5:4C:C3:C4:00:4F:49:3F:79:5A:83:D1:35:F5
    Signature Algorithm: sha512WithRSAEncryption
         bf:04:89:8e:12:e7:18:7e:cc:42:d0:aa:3c:76:44:07:f4:e7:
         57:13:f7:c4:47:12:97:83:8b:96:4c:5f:b3:8a:66:7d:94:18:
         99:ab:09:a4:63:f8:9f:c9:4c:f6:0e:6f:e9:b4:a6:a7:12:05:
         be:5c:d0:d9:9e:b4:6e:bc:6b:de:48:6b:30:cf:16:0a:96:b4:
         18:a7:89:4d:51:14:82:89:a0:d5:ab:d5:fc:1d:fc:3f:b1:70:
         69:99:16:4f:1c:29:fc:8a:34:68:6c:49:c4:18:9d:e3:99:55:
         40:86:d6:e9:4d:ea:aa:20:09:37:e8:e0:04:09:00:8b:c9:6c:
         5e:2d:1e:c6:b0:c4:02:f5:a9:ce:9d:d5:73:7e:3d:74:d5:35:
         bd:23:46:f6:37:af:91:f6:8c:76:d2:5f:56:8e:b7:09:cd:5a:
         c5:04:60:64:2f:59:1c:db:a7:27:d2:fc:35:de:27:8d:00:36:
         37:7e:89:d7:91:b0:6c:21:e0:8f:47:3f:9a:73:53:a3:c7:4f:
         6e:f4:89:49:07:1e:74:c0:27:55:18:08:5a:80:22:4f:0d:5d:
         05:6b:f4:b6:93:3f:ab:5d:ca:1d:aa:39:39:40:1c:cd:44:06:
         51:83:0b:14:af:3f:98:d9:d3:19:c9:94:c8:8a:d4:84:89:e8:
         26:1a:30:e8
-----BEGIN CERTIFICATE REQUEST-----
MIIC/jCCAeYCAQAwVjELMAkGA1UEBhMCZGsxDTALBgNVBAoMBGNpbmkxETAPBgNV
BCoMCEdpb3Zhbm5pMQ8wDQYDVQQEDAZNYXp6ZW8xFDASBgNVBAMMC2Npbmkub3Jn
LmRrMIIBIjANBgkqhkiG9w0BAQEFAAOCAQ8AMIIBCgKCAQEAwRjSRT6BGnTHSTEG
rWQ4HDuXi6YAvAXt0KJsO315nGg7Ij648p+0OpCMYHT0bANjIGdnu3KA6U/TDJYe
djIX6S2xl34K2TtJdyRSANH1944WzKYlmF1s1Ss6rXgasaFcLlVC7A9Q2Lz023bX
GL5Aigoc2wRQQZxOWB31EydhhhQdHoRX//lVecLjU5wZYlf1xgk8uU1rAEdKCcX7
Ub5Y5r7vTfD13d/IWa1UG/OeNXq+f0ctZjhJ464/uFP0DYzkdb2xl6KmDoqCMhJk
liy8KWwtFiCgi2TBS1egpZmdBPKZ6CMePhwh7zG7XxQfh2zCYbl23Okk2aOjg/G0
dGb/MwIDAQABoGMwYQYJKoZIhvcNAQkOMVQwUjAOBgNVHQ8BAf8EBAMCB4AwEwYD
VR0lBAwwCgYIKwYBBQUHAwIwDAYDVR0TAQH/BAIwADAdBgNVHQ4EFgQU8q6oU384
pUzDxABPST95WoPRNfUwDQYJKoZIhvcNAQENBQADggEBAL8EiY4S5xh+zELQqjx2
RAf051cT98RHEpeDi5ZMX7OKZn2UGJmrCaRj+J/JTPYOb+m0pqcSBb5c0NmetG68
a95IazDPFgqWtBiniU1RFIKJoNWr1fwd/D+xcGmZFk8cKfyKNGhsScQYneOZVUCG
1ulN6qogCTfo4AQJAIvJbF4tHsawxAL1qc6d1XN+PXTVNb0jRvY3r5H2jHbSX1aO
twnNWsUEYGQvWRzbpyfS/DXeJ40ANjd+ideRsGwh4I9HP5pzU6PHT270iUkHHnTA
J1UYCFqAIk8NXQVr9LaTP6tdyh2qOTlAHM1EBlGDCxSvP5jZ0xnJlMiK1ISJ6CYa
MOg=
-----END CERTIFICATE REQUEST-----
