Certificate Request:
    Data:
        Version: 1 (0x0)
        Subject: C = dk, O = cini, GN = Giovanni, SN = Mazzeo, CN = cini.org.dk
        Subject Public Key Info:
            Public Key Algorithm: rsaEncryption
                RSA Public-Key: (2048 bit)
                Modulus:
                    00:e3:49:ac:d3:89:69:04:8a:d3:76:1f:d1:be:ab:
                    93:f3:e2:65:4f:b3:23:f2:a5:39:ca:13:bb:6d:95:
                    7a:d1:cf:64:95:d1:de:93:54:9f:b8:03:cd:73:5f:
                    52:12:6d:94:42:8e:7e:69:69:e9:ea:a5:c9:02:e7:
                    b0:ec:d8:05:d8:06:6e:91:aa:b3:14:98:d0:8b:f2:
                    0a:20:1d:dc:7a:32:fe:82:13:4f:86:b3:8e:4b:56:
                    0c:be:40:52:37:3d:0a:60:19:0c:90:dc:ce:cc:08:
                    be:b6:e3:f1:3a:48:41:21:76:f7:87:5c:83:3c:bf:
                    39:f5:bd:8c:ee:61:c1:2b:a5:8b:b4:6c:7c:ba:cd:
                    34:5c:36:be:90:87:0e:21:a0:0f:7a:2e:37:b9:89:
                    4d:34:51:b1:e3:14:3d:e6:3f:db:07:56:2d:bc:6c:
                    84:3e:87:a6:53:60:5d:5e:25:5f:91:26:0f:5a:ec:
                    f9:0a:95:4d:f2:17:65:36:32:7c:ba:ff:ab:db:57:
                    15:6f:39:d2:cd:f8:15:82:a5:e1:c3:49:26:f6:3d:
                    77:e7:c9:c3:c2:11:c6:e3:f9:ee:5b:8d:cf:dd:2c:
                    8a:f2:2e:b7:8e:84:a8:38:33:21:61:bb:09:a5:40:
                    9c:ba:fe:75:37:24:5e:ce:17:83:86:8a:53:54:7c:
                    f5:45
                Exponent: 65537 (0x10001)
        Attributes:
        Requested Extensions:
            X509v3 Key Usage: critical
                Key Encipherment
            X509v3 Extended Key Usage: 
                TLS Web Server Authentication
            X509v3 Basic Constraints: critical
                CA:FALSE
            X509v3 Subject Key Identifier: 
                68:53:82:16:AB:88:21:E6:6F:C5:6E:6B:67:56:96:C8:D5:9D:3E:4A
    Signature Algorithm: sha512WithRSAEncryption
         ba:fd:35:bd:ad:ed:22:cb:6e:7b:37:66:dc:8c:35:5f:72:5b:
         e9:0d:23:7b:d5:1c:94:1e:7f:56:9a:08:77:f0:d2:ea:8c:a9:
         25:b1:86:6c:90:cd:e3:d9:ab:0a:ae:22:ca:ee:e6:78:8a:c5:
         e6:d9:ba:8c:14:44:76:1e:b6:f5:64:74:c9:fc:5f:4b:d7:37:
         9d:6c:e7:b7:44:ca:8c:52:4f:96:2b:5d:2d:c2:50:91:cd:9d:
         75:1d:c6:4b:f7:8f:07:4f:db:fe:c3:6e:68:10:08:89:61:4d:
         ad:ad:04:95:a3:ed:ce:6c:23:55:76:ca:af:7d:70:9d:df:80:
         6d:0d:71:48:74:90:2f:9e:c0:30:4a:84:05:f3:ec:b3:13:34:
         c8:aa:e2:aa:22:e0:7d:a1:e6:4f:58:9f:e9:f7:3a:0c:a5:eb:
         81:8f:24:26:f2:68:0f:3a:90:ef:f7:0b:f6:b5:1d:71:8e:47:
         f8:99:11:d7:ad:03:9a:bf:d4:99:7a:43:7b:44:d4:47:21:f6:
         0d:1c:8e:0e:44:ed:21:34:9b:6e:aa:87:37:4c:d9:44:89:a1:
         79:a3:21:9c:3b:2a:f9:98:45:15:1b:48:44:f9:e4:00:af:1e:
         d6:25:fc:f8:ff:ad:44:e4:96:6c:8d:84:ad:57:b3:8f:af:54:
         42:35:96:70
-----BEGIN CERTIFICATE REQUEST-----
MIIC/jCCAeYCAQAwVjELMAkGA1UEBhMCZGsxDTALBgNVBAoMBGNpbmkxETAPBgNV
BCoMCEdpb3Zhbm5pMQ8wDQYDVQQEDAZNYXp6ZW8xFDASBgNVBAMMC2Npbmkub3Jn
LmRrMIIBIjANBgkqhkiG9w0BAQEFAAOCAQ8AMIIBCgKCAQEA40ms04lpBIrTdh/R
vquT8+JlT7Mj8qU5yhO7bZV60c9kldHek1SfuAPNc19SEm2UQo5+aWnp6qXJAuew
7NgF2AZukaqzFJjQi/IKIB3cejL+ghNPhrOOS1YMvkBSNz0KYBkMkNzOzAi+tuPx
OkhBIXb3h1yDPL859b2M7mHBK6WLtGx8us00XDa+kIcOIaAPei43uYlNNFGx4xQ9
5j/bB1YtvGyEPoemU2BdXiVfkSYPWuz5CpVN8hdlNjJ8uv+r21cVbznSzfgVgqXh
w0km9j1358nDwhHG4/nuW43P3SyK8i63joSoODMhYbsJpUCcuv51NyRezheDhopT
VHz1RQIDAQABoGMwYQYJKoZIhvcNAQkOMVQwUjAOBgNVHQ8BAf8EBAMCBSAwEwYD
VR0lBAwwCgYIKwYBBQUHAwEwDAYDVR0TAQH/BAIwADAdBgNVHQ4EFgQUaFOCFquI
IeZvxW5rZ1aWyNWdPkowDQYJKoZIhvcNAQENBQADggEBALr9Nb2t7SLLbns3ZtyM
NV9yW+kNI3vVHJQef1aaCHfw0uqMqSWxhmyQzePZqwquIsru5niKxebZuowURHYe
tvVkdMn8X0vXN51s57dEyoxST5YrXS3CUJHNnXUdxkv3jwdP2/7DbmgQCIlhTa2t
BJWj7c5sI1V2yq99cJ3fgG0NcUh0kC+ewDBKhAXz7LMTNMiq4qoi4H2h5k9Yn+n3
Ogyl64GPJCbyaA86kO/3C/a1HXGOR/iZEdetA5q/1Jl6Q3tE1Ech9g0cjg5E7SE0
m26qhzdM2USJoXmjIZw7KvmYRRUbSET55ACvHtYl/Pj/rUTklmyNhK1Xs4+vVEI1
lnA=
-----END CERTIFICATE REQUEST-----
