Certificate Request:
    Data:
        Version: 1 (0x0)
        Subject: C = dk, O = cini, GN = Giovanni, SN = Mazzeo, CN = cini.org.dk
        Subject Public Key Info:
            Public Key Algorithm: rsaEncryption
                RSA Public-Key: (2048 bit)
                Modulus:
                    00:a7:ac:db:9f:b1:8d:16:11:15:25:39:e7:05:d8:
                    a1:52:39:b5:41:19:0e:37:5c:dd:f6:21:7f:89:f7:
                    e6:0c:18:bd:c1:a5:b4:2e:b2:ab:e7:69:f0:f1:5e:
                    8f:a9:aa:a6:36:d8:b7:84:f3:2a:f9:2f:65:01:58:
                    df:96:76:b2:3c:ec:28:54:a8:8e:fd:08:d8:8b:ab:
                    0d:25:09:77:51:80:d2:65:72:fe:75:11:91:77:9e:
                    5a:73:3b:af:f0:6e:22:70:7c:32:c0:c7:08:3e:99:
                    2a:b2:65:4a:82:92:fc:6c:47:f5:8c:f9:8d:7b:3e:
                    05:5c:78:91:30:0b:5b:66:55:71:8a:e7:d4:ff:1d:
                    e7:b3:ce:8a:7f:77:d0:99:57:05:26:8e:db:90:12:
                    bb:a0:6a:ee:bd:10:fa:2f:13:b8:e5:72:c0:52:18:
                    49:e0:7c:31:b9:bf:ab:e5:c1:21:9d:94:c5:f5:c1:
                    f3:49:70:1c:d2:6c:af:50:6a:5d:43:6b:ce:a0:0f:
                    ea:b7:c5:e0:d9:21:5d:01:38:c2:3f:70:2c:1f:64:
                    52:44:57:f6:1c:d8:8a:f9:5a:27:56:11:6c:41:df:
                    9f:9c:11:bb:96:bc:45:aa:9a:6b:1f:95:52:10:4b:
                    9f:07:0b:4e:f8:0b:8f:5b:bc:e4:89:16:64:ff:a0:
                    c9:1b
                Exponent: 65537 (0x10001)
        Attributes:
        Requested Extensions:
            X509v3 Key Usage: critical
                Digital Signature
            X509v3 Extended Key Usage: 
                TLS Web Client Authentication
            X509v3 Basic Constraints: critical
                CA:FALSE
            X509v3 Subject Key Identifier: 
                8A:5C:23:EF:34:06:65:8B:CA:70:85:2E:28:AB:31:74:B6:F9:3C:98
    Signature Algorithm: sha512WithRSAEncryption
         3d:c7:b4:2a:5e:15:27:e8:d1:93:9c:9b:1c:33:a7:86:01:2a:
         a2:c6:b7:cf:f2:71:b8:ed:b9:32:a8:8f:ce:63:3d:0c:f9:fd:
         df:26:49:32:2d:e5:20:2d:df:78:54:9e:1b:52:6d:10:d4:a7:
         5c:69:11:fd:e6:0a:d3:e4:da:7f:60:24:d9:1b:32:62:b5:e4:
         28:e9:2c:22:46:cb:0c:ab:c5:42:df:9c:84:b0:fc:48:ed:2f:
         f9:11:f1:06:46:46:21:e5:06:83:34:8f:3b:fc:aa:97:66:e5:
         52:b1:01:8c:88:8e:2d:5f:00:ee:74:de:46:c1:c0:ec:2a:7d:
         20:80:8b:3f:de:d8:91:a6:9b:49:5e:62:1f:5c:98:0a:bf:99:
         03:17:b0:e2:c7:2c:05:79:1b:41:53:46:c0:be:9d:b5:18:e7:
         76:35:51:b7:b7:19:eb:a2:dc:39:5c:75:f5:98:22:d3:1e:19:
         49:af:23:26:f8:40:1a:d6:88:45:56:52:ad:02:42:b8:f6:69:
         c6:2b:e7:12:6a:27:5f:f9:80:d0:14:d8:b2:02:5a:2e:13:e5:
         b5:9f:64:25:ff:5c:c4:35:0c:cd:b1:2d:2d:ed:dd:ba:40:6b:
         f2:8f:09:47:14:a5:ea:3d:8d:11:d5:ae:c4:60:49:57:fb:21:
         e0:74:7f:0d
-----BEGIN CERTIFICATE REQUEST-----
MIIC/jCCAeYCAQAwVjELMAkGA1UEBhMCZGsxDTALBgNVBAoMBGNpbmkxETAPBgNV
BCoMCEdpb3Zhbm5pMQ8wDQYDVQQEDAZNYXp6ZW8xFDASBgNVBAMMC2Npbmkub3Jn
LmRrMIIBIjANBgkqhkiG9w0BAQEFAAOCAQ8AMIIBCgKCAQEAp6zbn7GNFhEVJTnn
BdihUjm1QRkON1zd9iF/iffmDBi9waW0LrKr52nw8V6PqaqmNti3hPMq+S9lAVjf
lnayPOwoVKiO/QjYi6sNJQl3UYDSZXL+dRGRd55aczuv8G4icHwywMcIPpkqsmVK
gpL8bEf1jPmNez4FXHiRMAtbZlVxiufU/x3ns86Kf3fQmVcFJo7bkBK7oGruvRD6
LxO45XLAUhhJ4Hwxub+r5cEhnZTF9cHzSXAc0myvUGpdQ2vOoA/qt8Xg2SFdATjC
P3AsH2RSRFf2HNiK+VonVhFsQd+fnBG7lrxFqpprH5VSEEufBwtO+AuPW7zkiRZk
/6DJGwIDAQABoGMwYQYJKoZIhvcNAQkOMVQwUjAOBgNVHQ8BAf8EBAMCB4AwEwYD
VR0lBAwwCgYIKwYBBQUHAwIwDAYDVR0TAQH/BAIwADAdBgNVHQ4EFgQUilwj7zQG
ZYvKcIUuKKsxdLb5PJgwDQYJKoZIhvcNAQENBQADggEBAD3HtCpeFSfo0ZOcmxwz
p4YBKqLGt8/ycbjtuTKoj85jPQz5/d8mSTIt5SAt33hUnhtSbRDUp1xpEf3mCtPk
2n9gJNkbMmK15CjpLCJGywyrxULfnISw/EjtL/kR8QZGRiHlBoM0jzv8qpdm5VKx
AYyIji1fAO503kbBwOwqfSCAiz/e2JGmm0leYh9cmAq/mQMXsOLHLAV5G0FTRsC+
nbUY53Y1Ube3Geui3DlcdfWYItMeGUmvIyb4QBrWiEVWUq0CQrj2acYr5xJqJ1/5
gNAU2LICWi4T5bWfZCX/XMQ1DM2xLS3t3bpAa/KPCUcUpeo9jRHVrsRgSVf7IeB0
fw0=
-----END CERTIFICATE REQUEST-----
