Certificate Request:
    Data:
        Version: 1 (0x0)
        Subject: C = dk, O = cini, GN = Giovanni, SN = Mazzeo, CN = cini.org.dk
        Subject Public Key Info:
            Public Key Algorithm: rsaEncryption
                RSA Public-Key: (2048 bit)
                Modulus:
                    00:f2:1d:e7:aa:86:8f:4d:24:61:77:a3:89:fb:57:
                    ae:eb:7d:5e:53:11:9d:31:e7:7c:ff:f0:4c:ca:49:
                    81:a3:d2:a4:06:c3:fd:b7:ee:9d:0b:95:cc:72:1f:
                    72:6b:29:68:4d:64:0e:34:be:63:6d:6f:d5:fe:45:
                    ab:72:77:c8:26:da:92:e6:c0:de:f8:a4:99:5d:0e:
                    d4:34:26:5c:b3:27:ae:cd:1e:d8:55:09:fc:93:c1:
                    97:0f:08:f3:6a:86:0d:e5:42:09:f9:81:32:93:d6:
                    a6:19:df:04:04:b7:9a:d0:32:5b:5e:fd:00:e9:97:
                    0f:f9:1a:f4:aa:b4:de:1b:cf:41:06:68:dc:4c:e3:
                    4b:0c:be:ec:5b:46:12:0a:15:58:e0:67:ff:85:e2:
                    17:a4:92:5c:3c:c6:32:36:d2:48:10:8e:86:a1:16:
                    78:20:4f:52:c7:1d:3b:b0:2a:4b:8d:09:3d:04:6e:
                    0c:73:c5:3c:08:c8:3c:a0:b7:25:74:b5:e6:07:fe:
                    2a:ef:f9:3e:24:05:ab:b0:ab:db:72:a1:9a:7b:8d:
                    27:75:a2:7d:9c:88:22:c3:20:b2:30:9f:00:5f:41:
                    af:83:1e:7e:79:31:fe:d3:2c:60:c4:6f:e8:8e:a2:
                    07:d1:f7:b7:cc:5b:ef:16:50:53:e1:3e:35:2f:2f:
                    ae:f1
                Exponent: 65537 (0x10001)
        Attributes:
        Requested Extensions:
            X509v3 Key Usage: critical
                Key Encipherment
            X509v3 Extended Key Usage: 
                TLS Web Server Authentication
            X509v3 Basic Constraints: critical
                CA:FALSE
            X509v3 Subject Key Identifier: 
                26:AE:9E:36:ED:3C:88:12:5A:83:06:0D:A6:E6:3E:1E:E1:F1:65:03
    Signature Algorithm: sha512WithRSAEncryption
         83:c8:c9:05:7b:d6:fc:72:81:de:cc:9c:d2:fb:f3:0c:22:69:
         71:3a:93:85:9c:c4:48:5b:c2:46:2e:ba:66:3b:0a:0a:fd:7f:
         f5:b4:02:95:6a:62:fa:85:83:2c:74:97:67:96:2d:ca:0b:76:
         5b:00:09:21:3f:0d:e6:39:34:4d:8d:7a:21:53:9a:39:03:02:
         6d:29:e5:14:69:e4:c9:ee:2a:0f:cd:3a:42:86:f6:a7:02:62:
         14:89:76:03:0e:75:db:17:84:4e:f1:6d:69:92:f8:71:62:ce:
         62:de:45:15:20:d2:ea:5f:b2:3d:c4:01:ef:c1:13:19:ed:22:
         b0:ed:92:b7:7c:60:d5:c1:3b:11:94:90:8f:e0:20:5c:1a:9f:
         15:78:5f:43:39:56:5c:9f:8c:66:de:88:f7:89:33:0e:cf:69:
         73:05:d5:d3:fc:fe:ca:0d:70:35:a1:3b:54:0c:3b:34:1c:00:
         6f:09:55:d8:5f:90:7c:a3:29:3c:28:30:0d:86:73:7f:9b:bc:
         18:94:6b:a3:3f:74:89:82:6a:c3:ee:91:31:26:4b:c4:76:b7:
         0b:17:15:d5:ec:cf:1f:5f:f8:5d:87:83:5d:0a:90:c9:9c:95:
         e9:06:e3:4a:42:9f:2e:0e:8f:c1:44:7a:c9:f5:f8:da:72:a0:
         d2:dc:6c:27
-----BEGIN CERTIFICATE REQUEST-----
MIIC/jCCAeYCAQAwVjELMAkGA1UEBhMCZGsxDTALBgNVBAoMBGNpbmkxETAPBgNV
BCoMCEdpb3Zhbm5pMQ8wDQYDVQQEDAZNYXp6ZW8xFDASBgNVBAMMC2Npbmkub3Jn
LmRrMIIBIjANBgkqhkiG9w0BAQEFAAOCAQ8AMIIBCgKCAQEA8h3nqoaPTSRhd6OJ
+1eu631eUxGdMed8//BMykmBo9KkBsP9t+6dC5XMch9yayloTWQONL5jbW/V/kWr
cnfIJtqS5sDe+KSZXQ7UNCZcsyeuzR7YVQn8k8GXDwjzaoYN5UIJ+YEyk9amGd8E
BLea0DJbXv0A6ZcP+Rr0qrTeG89BBmjcTONLDL7sW0YSChVY4Gf/heIXpJJcPMYy
NtJIEI6GoRZ4IE9Sxx07sCpLjQk9BG4Mc8U8CMg8oLcldLXmB/4q7/k+JAWrsKvb
cqGae40ndaJ9nIgiwyCyMJ8AX0Gvgx5+eTH+0yxgxG/ojqIH0fe3zFvvFlBT4T41
Ly+u8QIDAQABoGMwYQYJKoZIhvcNAQkOMVQwUjAOBgNVHQ8BAf8EBAMCBSAwEwYD
VR0lBAwwCgYIKwYBBQUHAwEwDAYDVR0TAQH/BAIwADAdBgNVHQ4EFgQUJq6eNu08
iBJagwYNpuY+HuHxZQMwDQYJKoZIhvcNAQENBQADggEBAIPIyQV71vxygd7MnNL7
8wwiaXE6k4WcxEhbwkYuumY7Cgr9f/W0ApVqYvqFgyx0l2eWLcoLdlsACSE/DeY5
NE2NeiFTmjkDAm0p5RRp5MnuKg/NOkKG9qcCYhSJdgMOddsXhE7xbWmS+HFizmLe
RRUg0upfsj3EAe/BExntIrDtkrd8YNXBOxGUkI/gIFwanxV4X0M5VlyfjGbeiPeJ
Mw7PaXMF1dP8/soNcDWhO1QMOzQcAG8JVdhfkHyjKTwoMA2Gc3+bvBiUa6M/dImC
asPukTEmS8R2twsXFdXszx9f+F2Hg10KkMmclekG40pCny4Oj8FEesn1+NpyoNLc
bCc=
-----END CERTIFICATE REQUEST-----
