Certificate Request:
    Data:
        Version: 1 (0x0)
        Subject: C = dk, O = cini, GN = Giovanni, SN = Mazzeo, CN = cini.org.dk
        Subject Public Key Info:
            Public Key Algorithm: rsaEncryption
                RSA Public-Key: (2048 bit)
                Modulus:
                    00:a9:7f:31:b0:81:da:7b:df:82:63:d8:c2:ee:3f:
                    68:eb:8c:85:7f:b3:85:e9:c6:92:7b:ba:c6:8c:3a:
                    88:7e:af:cc:a4:05:76:08:ac:42:02:27:f8:87:80:
                    26:d9:16:83:6c:97:8f:3f:ea:74:85:9e:3d:43:26:
                    a1:30:c3:de:70:c7:b6:3d:50:84:2b:cb:39:77:62:
                    33:f9:f0:51:e9:32:2d:2c:87:55:4c:d5:1f:13:6b:
                    e0:14:2a:e7:56:6d:d7:c7:14:41:19:72:14:d9:1e:
                    13:6e:fb:6b:ea:a9:63:88:ba:dd:2c:70:64:88:a8:
                    42:73:ba:04:e2:15:62:7b:bb:0c:b3:4b:1e:12:81:
                    fd:bc:7c:aa:12:ca:08:50:eb:04:35:d9:b8:0e:f1:
                    49:ad:08:2d:ef:5a:11:fe:13:52:43:db:0c:69:ab:
                    de:84:34:4e:aa:8e:42:40:21:c5:d2:a3:86:c2:e6:
                    b3:9a:7d:de:4d:12:95:98:32:74:1b:a3:fb:fa:35:
                    27:64:ea:36:6a:02:24:ba:9c:81:b0:6b:e5:77:4f:
                    6a:e0:bd:48:38:5f:67:d1:4e:30:09:9d:d0:db:f1:
                    52:0d:85:d3:66:82:b0:c0:2d:1c:d3:f5:15:29:98:
                    7a:a3:49:b4:53:1d:d8:2f:f0:0a:2d:b9:3a:f2:3e:
                    20:7b
                Exponent: 65537 (0x10001)
        Attributes:
        Requested Extensions:
            X509v3 Key Usage: critical
                Digital Signature
            X509v3 Extended Key Usage: 
                TLS Web Client Authentication
            X509v3 Basic Constraints: critical
                CA:FALSE
            X509v3 Subject Key Identifier: 
                CE:4A:D6:87:B4:C2:8C:35:7C:E0:35:8B:A5:3A:20:B7:85:A8:5C:AA
    Signature Algorithm: sha512WithRSAEncryption
         68:4c:ac:ee:51:1a:bf:01:e3:da:81:d9:23:33:14:95:52:02:
         3c:e4:65:7e:d2:ad:84:98:5a:28:0a:24:90:0b:59:8a:78:ef:
         c0:0c:0a:e9:a8:a8:a8:bd:29:3c:c5:5f:93:e6:0b:cf:d0:b7:
         c3:98:a5:84:60:c2:13:b1:cc:e2:5e:7f:10:28:d3:20:bc:f2:
         18:46:01:48:e8:ff:bd:80:47:69:e3:80:a8:47:c6:ce:a1:83:
         23:a7:b6:12:b4:29:da:c6:21:0c:55:11:b6:b9:18:b3:10:80:
         7a:ac:9d:0b:bb:1d:1b:ab:f5:22:7f:83:b4:4c:d5:5b:21:03:
         2d:1f:52:1e:bf:92:74:59:3d:92:f5:22:15:68:c3:95:a2:12:
         e3:db:10:68:81:2c:94:58:37:1c:01:5c:8b:63:72:4a:b5:c9:
         82:b1:28:77:65:27:c3:0e:0c:36:54:bb:5a:d6:b0:0d:29:58:
         b9:d1:cb:63:17:84:f0:aa:29:45:48:f1:41:25:bc:8e:00:ee:
         15:9c:11:02:22:be:86:69:5e:9f:a7:b6:19:97:29:7b:46:e6:
         59:51:bb:7c:97:33:15:e1:c1:51:13:87:cc:6b:4f:1e:7e:cf:
         66:7d:79:68:2d:76:09:d4:e3:c0:50:83:a3:20:e0:66:a1:df:
         4b:32:9e:86
-----BEGIN CERTIFICATE REQUEST-----
MIIC/jCCAeYCAQAwVjELMAkGA1UEBhMCZGsxDTALBgNVBAoMBGNpbmkxETAPBgNV
BCoMCEdpb3Zhbm5pMQ8wDQYDVQQEDAZNYXp6ZW8xFDASBgNVBAMMC2Npbmkub3Jn
LmRrMIIBIjANBgkqhkiG9w0BAQEFAAOCAQ8AMIIBCgKCAQEAqX8xsIHae9+CY9jC
7j9o64yFf7OF6caSe7rGjDqIfq/MpAV2CKxCAif4h4Am2RaDbJePP+p0hZ49Qyah
MMPecMe2PVCEK8s5d2Iz+fBR6TItLIdVTNUfE2vgFCrnVm3XxxRBGXIU2R4Tbvtr
6qljiLrdLHBkiKhCc7oE4hVie7sMs0seEoH9vHyqEsoIUOsENdm4DvFJrQgt71oR
/hNSQ9sMaavehDROqo5CQCHF0qOGwuazmn3eTRKVmDJ0G6P7+jUnZOo2agIkupyB
sGvld09q4L1IOF9n0U4wCZ3Q2/FSDYXTZoKwwC0c0/UVKZh6o0m0Ux3YL/AKLbk6
8j4gewIDAQABoGMwYQYJKoZIhvcNAQkOMVQwUjAOBgNVHQ8BAf8EBAMCB4AwEwYD
VR0lBAwwCgYIKwYBBQUHAwIwDAYDVR0TAQH/BAIwADAdBgNVHQ4EFgQUzkrWh7TC
jDV84DWLpTogt4WoXKowDQYJKoZIhvcNAQENBQADggEBAGhMrO5RGr8B49qB2SMz
FJVSAjzkZX7SrYSYWigKJJALWYp478AMCumoqKi9KTzFX5PmC8/Qt8OYpYRgwhOx
zOJefxAo0yC88hhGAUjo/72AR2njgKhHxs6hgyOnthK0KdrGIQxVEba5GLMQgHqs
nQu7HRur9SJ/g7RM1VshAy0fUh6/knRZPZL1IhVow5WiEuPbEGiBLJRYNxwBXItj
ckq1yYKxKHdlJ8MODDZUu1rWsA0pWLnRy2MXhPCqKUVI8UElvI4A7hWcEQIivoZp
Xp+nthmXKXtG5llRu3yXMxXhwVETh8xrTx5+z2Z9eWgtdgnU48BQg6Mg4Gah30sy
noY=
-----END CERTIFICATE REQUEST-----
