Certificate Request:
    Data:
        Version: 1 (0x0)
        Subject: C = dk, O = cini, GN = Giovanni, SN = Mazzeo, CN = cini.org.dk
        Subject Public Key Info:
            Public Key Algorithm: rsaEncryption
                RSA Public-Key: (2048 bit)
                Modulus:
                    00:e7:a2:7b:55:29:93:11:7a:28:cf:22:9c:97:6c:
                    a0:64:38:3c:19:fc:cd:48:f8:ab:34:74:8d:ac:df:
                    10:37:a3:4b:33:31:08:19:84:6c:92:23:f3:1e:e7:
                    b9:8f:de:58:97:d8:bd:c6:0b:a4:31:db:b2:5f:f3:
                    7a:db:0c:32:c6:d9:9d:3b:ad:be:e3:31:20:81:1d:
                    08:ed:09:54:e3:91:b9:68:32:48:13:17:19:20:64:
                    3b:7c:7e:f0:fb:86:37:f5:85:8b:cf:10:1f:28:df:
                    43:fa:cc:da:02:6f:ae:e6:95:7d:24:c3:2e:59:53:
                    7c:20:79:1a:08:76:54:2a:03:15:85:3f:2c:e2:03:
                    fa:96:94:b7:04:50:34:20:df:c4:74:8d:10:e2:69:
                    50:20:58:f4:fe:79:d9:37:92:4a:56:b4:61:44:c4:
                    f0:97:55:5f:df:21:92:7e:7e:59:d4:a3:9e:5c:0b:
                    e5:1c:14:56:17:71:f9:57:44:39:32:b9:5d:6a:2f:
                    80:c0:49:a0:c6:0e:47:d7:74:97:56:44:a0:dd:10:
                    18:0f:57:69:57:58:d1:e0:a3:c6:c9:8b:67:6d:18:
                    d3:cd:9e:7b:b1:13:e8:a0:52:1d:fa:ed:45:9e:bb:
                    ef:ed:21:b6:c1:25:c5:6b:22:9f:be:7b:fb:d6:e5:
                    3c:33
                Exponent: 65537 (0x10001)
        Attributes:
        Requested Extensions:
            X509v3 Key Usage: critical
                Non Repudiation
            X509v3 Extended Key Usage: 
                OCSP Signing
            X509v3 Basic Constraints: critical
                CA:FALSE
            X509v3 Subject Key Identifier: 
                DE:9D:C9:23:AC:75:D0:B3:65:88:B2:98:0F:3C:F8:2F:EF:66:FE:4F
    Signature Algorithm: sha512WithRSAEncryption
         61:3a:11:08:85:29:e7:f8:ba:01:86:62:bb:8d:84:62:a3:a0:
         84:01:b7:8e:52:2a:b5:d0:49:bf:90:88:b5:bd:e1:6f:56:0d:
         34:c6:d1:7d:26:c6:91:0e:01:e1:9f:8f:98:e2:3b:dc:33:5c:
         d4:ec:ac:ac:09:5e:0b:64:3d:06:94:58:3a:ce:4c:30:a3:6a:
         54:a3:6a:a6:52:1a:6b:00:11:d5:46:1c:fd:4b:ed:ac:93:e8:
         ab:cc:d5:77:d1:0f:b6:2c:b4:0f:6a:52:84:40:f9:6c:c1:ba:
         87:a8:2a:44:47:48:81:e5:52:a4:be:b3:24:f7:d1:03:4f:62:
         14:b4:75:08:78:4f:1f:3b:b7:24:ec:1a:63:b8:f3:dd:9d:79:
         b8:9f:ea:ac:26:92:50:3c:cf:4c:67:69:e5:a9:ab:06:ed:e9:
         52:f1:75:a5:71:b7:12:ad:1f:2e:41:ea:5a:79:a5:c6:35:bc:
         b6:08:81:74:72:2d:c8:c2:1a:f1:e9:ab:20:a1:db:db:3a:f7:
         8d:a6:0c:04:83:61:8c:68:99:b0:93:af:fc:21:ed:2a:df:5a:
         ea:ef:7f:e0:ab:2d:ab:3c:0c:4d:47:b6:b5:ea:7c:03:06:4a:
         a5:ba:70:fa:75:b8:9f:99:fb:8e:76:d4:88:4e:11:04:93:ba:
         4b:3f:69:c4
-----BEGIN CERTIFICATE REQUEST-----
MIIC/jCCAeYCAQAwVjELMAkGA1UEBhMCZGsxDTALBgNVBAoMBGNpbmkxETAPBgNV
BCoMCEdpb3Zhbm5pMQ8wDQYDVQQEDAZNYXp6ZW8xFDASBgNVBAMMC2Npbmkub3Jn
LmRrMIIBIjANBgkqhkiG9w0BAQEFAAOCAQ8AMIIBCgKCAQEA56J7VSmTEXoozyKc
l2ygZDg8GfzNSPirNHSNrN8QN6NLMzEIGYRskiPzHue5j95Yl9i9xgukMduyX/N6
2wwyxtmdO62+4zEggR0I7QlU45G5aDJIExcZIGQ7fH7w+4Y39YWLzxAfKN9D+sza
Am+u5pV9JMMuWVN8IHkaCHZUKgMVhT8s4gP6lpS3BFA0IN/EdI0Q4mlQIFj0/nnZ
N5JKVrRhRMTwl1Vf3yGSfn5Z1KOeXAvlHBRWF3H5V0Q5Mrldai+AwEmgxg5H13SX
VkSg3RAYD1dpV1jR4KPGyYtnbRjTzZ57sRPooFId+u1Fnrvv7SG2wSXFayKfvnv7
1uU8MwIDAQABoGMwYQYJKoZIhvcNAQkOMVQwUjAOBgNVHQ8BAf8EBAMCBkAwEwYD
VR0lBAwwCgYIKwYBBQUHAwkwDAYDVR0TAQH/BAIwADAdBgNVHQ4EFgQU3p3JI6x1
0LNliLKYDzz4L+9m/k8wDQYJKoZIhvcNAQENBQADggEBAGE6EQiFKef4ugGGYruN
hGKjoIQBt45SKrXQSb+QiLW94W9WDTTG0X0mxpEOAeGfj5jiO9wzXNTsrKwJXgtk
PQaUWDrOTDCjalSjaqZSGmsAEdVGHP1L7ayT6KvM1XfRD7YstA9qUoRA+WzBuoeo
KkRHSIHlUqS+syT30QNPYhS0dQh4Tx87tyTsGmO4892debif6qwmklA8z0xnaeWp
qwbt6VLxdaVxtxKtHy5B6lp5pcY1vLYIgXRyLcjCGvHpqyCh29s6942mDASDYYxo
mbCTr/wh7SrfWurvf+CrLas8DE1HtrXqfAMGSqW6cPp1uJ+Z+4521IhOEQSTuks/
acQ=
-----END CERTIFICATE REQUEST-----
