Certificate Request:
    Data:
        Version: 1 (0x0)
        Subject: C = dk, O = cini, GN = Giovanni, SN = Mazzeo, CN = cini.org.dk
        Subject Public Key Info:
            Public Key Algorithm: rsaEncryption
                RSA Public-Key: (2048 bit)
                Modulus:
                    00:b4:22:3c:39:b7:88:33:eb:4b:18:b2:f1:92:05:
                    b2:e7:ff:61:d2:96:a6:1a:91:be:e7:5e:8c:e4:b1:
                    2d:e9:ff:89:23:f4:65:45:d4:12:7d:81:1a:5c:77:
                    28:d2:e4:64:be:eb:2f:b0:0f:c6:f5:d5:e1:4e:b4:
                    e0:0d:45:9b:9b:fa:58:71:2c:30:91:01:7a:f1:c2:
                    f7:bf:4b:db:dd:67:3f:63:6e:95:fb:d7:8c:19:3f:
                    1e:d0:13:bc:9c:c3:30:ae:d9:71:a0:4d:3f:1d:19:
                    e6:43:ff:d5:26:1e:7c:75:d8:af:5d:59:57:25:81:
                    ac:f0:94:4b:91:fb:8c:43:bc:19:dc:a4:f2:2a:bb:
                    b4:57:a7:03:7d:dc:25:87:f1:bb:e4:09:a1:dc:8c:
                    c9:6d:a8:6b:04:b1:d9:1a:33:a9:b2:4e:06:32:15:
                    0d:ce:46:26:30:ad:51:34:5f:61:38:5d:a5:73:d6:
                    f3:a0:cc:da:f6:12:59:87:4a:78:f4:5d:bc:34:f2:
                    4f:63:f0:79:ec:5f:aa:13:97:a7:38:78:4b:97:f7:
                    ba:d7:11:79:50:02:dc:f3:0f:35:06:43:17:9a:98:
                    48:8e:15:5c:08:45:9a:4f:74:62:2b:ea:6d:08:57:
                    a9:95:c4:a0:6c:6d:90:b8:a7:e5:1f:e9:7c:0a:9d:
                    02:9b
                Exponent: 65537 (0x10001)
        Attributes:
        Requested Extensions:
            X509v3 Key Usage: critical
                Non Repudiation
            X509v3 Extended Key Usage: 
                OCSP Signing
            X509v3 Basic Constraints: critical
                CA:FALSE
            X509v3 Subject Key Identifier: 
                F5:F9:80:9B:3F:03:F3:F8:F1:51:4E:07:69:27:3A:7B:CF:25:31:B8
    Signature Algorithm: sha512WithRSAEncryption
         81:4c:5c:d1:51:ec:43:b4:c1:51:b9:0b:5d:92:d1:5f:57:c8:
         87:e0:67:e9:58:f1:1e:0e:e3:fc:d2:0b:7e:10:33:84:f7:03:
         45:78:27:c2:44:e8:dc:85:54:13:59:64:91:f8:a3:8e:95:7b:
         95:63:96:9c:64:9d:8b:cf:2e:99:bb:1f:48:18:e4:30:08:cb:
         90:ba:b8:92:af:f1:c9:27:66:35:42:c5:51:33:72:dc:65:c7:
         e0:1b:c5:12:8a:49:eb:03:c8:c0:95:51:7a:08:a1:3c:af:5a:
         f0:4b:fa:88:0c:35:45:1f:d5:ab:15:e0:06:dc:e0:b3:e9:d4:
         ac:d9:36:77:99:02:7e:a7:fb:10:62:07:dd:6e:6d:90:67:c0:
         4e:20:fb:cd:f9:95:cf:17:c5:cd:a2:3f:b5:17:26:6b:9e:56:
         d4:6c:72:77:84:bf:95:e1:b5:5f:cb:db:23:87:be:c3:ac:79:
         bd:ff:15:6c:35:8a:3b:7b:ff:61:33:e7:15:49:76:a2:bf:5c:
         40:f3:13:5a:88:37:81:c8:fc:ff:b9:93:73:bb:18:83:6b:58:
         05:df:b7:cc:ba:85:19:9b:53:12:9e:b4:b5:91:eb:94:9c:89:
         58:82:42:07:45:fd:8b:d9:e4:59:08:54:9d:e7:7b:91:33:37:
         97:c3:f5:a3
-----BEGIN CERTIFICATE REQUEST-----
MIIC/jCCAeYCAQAwVjELMAkGA1UEBhMCZGsxDTALBgNVBAoMBGNpbmkxETAPBgNV
BCoMCEdpb3Zhbm5pMQ8wDQYDVQQEDAZNYXp6ZW8xFDASBgNVBAMMC2Npbmkub3Jn
LmRrMIIBIjANBgkqhkiG9w0BAQEFAAOCAQ8AMIIBCgKCAQEAtCI8ObeIM+tLGLLx
kgWy5/9h0pamGpG+516M5LEt6f+JI/RlRdQSfYEaXHco0uRkvusvsA/G9dXhTrTg
DUWbm/pYcSwwkQF68cL3v0vb3Wc/Y26V+9eMGT8e0BO8nMMwrtlxoE0/HRnmQ//V
Jh58ddivXVlXJYGs8JRLkfuMQ7wZ3KTyKru0V6cDfdwlh/G75Amh3IzJbahrBLHZ
GjOpsk4GMhUNzkYmMK1RNF9hOF2lc9bzoMza9hJZh0p49F28NPJPY/B57F+qE5en
OHhLl/e61xF5UALc8w81BkMXmphIjhVcCEWaT3RiK+ptCFeplcSgbG2QuKflH+l8
Cp0CmwIDAQABoGMwYQYJKoZIhvcNAQkOMVQwUjAOBgNVHQ8BAf8EBAMCBkAwEwYD
VR0lBAwwCgYIKwYBBQUHAwkwDAYDVR0TAQH/BAIwADAdBgNVHQ4EFgQU9fmAmz8D
8/jxUU4HaSc6e88lMbgwDQYJKoZIhvcNAQENBQADggEBAIFMXNFR7EO0wVG5C12S
0V9XyIfgZ+lY8R4O4/zSC34QM4T3A0V4J8JE6NyFVBNZZJH4o46Ve5VjlpxknYvP
Lpm7H0gY5DAIy5C6uJKv8cknZjVCxVEzctxlx+AbxRKKSesDyMCVUXoIoTyvWvBL
+ogMNUUf1asV4Abc4LPp1KzZNneZAn6n+xBiB91ubZBnwE4g+835lc8Xxc2iP7UX
JmueVtRscneEv5XhtV/L2yOHvsOseb3/FWw1ijt7/2Ez5xVJdqK/XEDzE1qIN4HI
/P+5k3O7GINrWAXft8y6hRmbUxKetLWR65SciViCQgdF/YvZ5FkIVJ3ne5EzN5fD
9aM=
-----END CERTIFICATE REQUEST-----
