Certificate Request:
    Data:
        Version: 1 (0x0)
        Subject: C = dk, O = cini, GN = Giovanni, SN = Mazzeo, CN = cini.org.dk
        Subject Public Key Info:
            Public Key Algorithm: rsaEncryption
                RSA Public-Key: (2048 bit)
                Modulus:
                    00:cb:05:74:ad:a5:19:7a:e4:55:15:1a:77:70:9d:
                    e7:26:10:b7:76:d6:db:95:d7:74:d4:98:2b:c2:c2:
                    0b:4f:31:79:65:91:b5:f2:9c:c0:33:e1:ff:d7:a9:
                    55:c2:be:e2:a5:ba:61:c1:23:8f:c0:7b:1b:00:62:
                    4f:ca:ee:1a:2e:33:dd:a7:1d:2f:2e:48:b0:46:3c:
                    c3:69:30:6c:5a:89:b6:b8:10:95:57:a4:fc:5f:bd:
                    bc:b4:32:6a:01:66:0a:e0:1c:b0:d3:6a:d3:af:66:
                    73:34:f1:a9:11:8e:1a:b2:be:93:1f:69:ab:14:e6:
                    81:9f:63:3b:89:12:5d:5f:8d:d6:1c:ec:a4:a7:f1:
                    0a:6a:28:38:03:74:92:4e:7f:56:16:38:36:5c:c3:
                    94:a0:4b:bf:31:e8:4a:1c:60:4d:fa:69:21:ce:02:
                    fb:5b:3b:7e:7a:6e:37:31:d7:e6:8b:8c:3c:2c:26:
                    d7:3d:39:0b:e2:2a:bc:51:a2:48:2e:70:ea:af:e4:
                    90:da:2e:84:e8:c4:f1:82:56:a2:e0:ea:cb:26:78:
                    12:34:39:9d:8a:54:8a:e2:d9:9d:9f:44:9e:dd:7a:
                    a3:72:45:d2:64:20:39:f0:6d:31:fd:46:1a:da:f5:
                    d3:7f:0d:bf:8f:0d:d5:26:b6:e5:62:eb:54:93:c3:
                    87:f5
                Exponent: 65537 (0x10001)
        Attributes:
        Requested Extensions:
            X509v3 Key Usage: critical
                Digital Signature
            X509v3 Extended Key Usage: 
                TLS Web Client Authentication
            X509v3 Basic Constraints: critical
                CA:FALSE
            X509v3 Subject Key Identifier: 
                18:43:3F:1E:DE:D7:04:71:4D:46:4A:F0:78:F7:49:7A:A5:03:41:72
    Signature Algorithm: sha512WithRSAEncryption
         48:03:7b:87:91:4b:c5:86:9c:1a:ed:f5:e1:a7:59:3f:2c:60:
         09:a6:96:6e:c0:24:1e:77:41:97:ef:ac:5c:71:04:8d:30:84:
         21:40:54:2b:e2:c6:74:14:f9:41:a1:15:d3:9f:ad:73:6b:f8:
         fb:48:09:e6:92:a1:2b:75:40:f4:95:b2:64:45:3b:af:6b:42:
         9a:12:5d:fd:b7:b1:e3:f9:2c:02:07:92:d3:6d:3b:d4:a3:26:
         43:c5:68:58:1c:0f:a0:24:f3:24:35:b9:cc:15:b1:02:e6:6f:
         b2:15:09:4a:ec:5a:52:bb:7b:3a:79:98:ad:11:5d:d2:5d:b1:
         0b:59:cc:24:a9:ef:67:b6:e2:92:63:d0:c4:6e:ef:ea:f6:35:
         98:7c:65:2e:c3:84:35:5a:8e:89:21:fa:90:02:db:32:17:40:
         3f:f8:3f:be:00:3f:56:42:da:0b:cc:e3:4b:e6:b2:3f:4d:bc:
         2f:ea:02:b8:b0:14:44:ac:19:7e:78:a7:8b:70:6b:95:2a:5e:
         c0:69:1e:df:96:7e:9e:20:38:19:cc:6c:1b:db:fb:73:80:92:
         5c:51:40:b7:ce:63:fd:1a:f9:ae:a5:2c:ae:23:f3:12:b4:11:
         2a:02:75:62:49:55:6b:8c:dd:3d:d3:52:12:67:6d:88:d2:e5:
         b7:06:b0:7e
-----BEGIN CERTIFICATE REQUEST-----
MIIC/jCCAeYCAQAwVjELMAkGA1UEBhMCZGsxDTALBgNVBAoMBGNpbmkxETAPBgNV
BCoMCEdpb3Zhbm5pMQ8wDQYDVQQEDAZNYXp6ZW8xFDASBgNVBAMMC2Npbmkub3Jn
LmRrMIIBIjANBgkqhkiG9w0BAQEFAAOCAQ8AMIIBCgKCAQEAywV0raUZeuRVFRp3
cJ3nJhC3dtbbldd01JgrwsILTzF5ZZG18pzAM+H/16lVwr7ipbphwSOPwHsbAGJP
yu4aLjPdpx0vLkiwRjzDaTBsWom2uBCVV6T8X728tDJqAWYK4Byw02rTr2ZzNPGp
EY4asr6TH2mrFOaBn2M7iRJdX43WHOykp/EKaig4A3SSTn9WFjg2XMOUoEu/MehK
HGBN+mkhzgL7Wzt+em43Mdfmi4w8LCbXPTkL4iq8UaJILnDqr+SQ2i6E6MTxglai
4OrLJngSNDmdilSK4tmdn0Se3XqjckXSZCA58G0x/UYa2vXTfw2/jw3VJrblYutU
k8OH9QIDAQABoGMwYQYJKoZIhvcNAQkOMVQwUjAOBgNVHQ8BAf8EBAMCB4AwEwYD
VR0lBAwwCgYIKwYBBQUHAwIwDAYDVR0TAQH/BAIwADAdBgNVHQ4EFgQUGEM/Ht7X
BHFNRkrwePdJeqUDQXIwDQYJKoZIhvcNAQENBQADggEBAEgDe4eRS8WGnBrt9eGn
WT8sYAmmlm7AJB53QZfvrFxxBI0whCFAVCvixnQU+UGhFdOfrXNr+PtICeaSoSt1
QPSVsmRFO69rQpoSXf23seP5LAIHktNtO9SjJkPFaFgcD6Ak8yQ1ucwVsQLmb7IV
CUrsWlK7ezp5mK0RXdJdsQtZzCSp72e24pJj0MRu7+r2NZh8ZS7DhDVajokh+pAC
2zIXQD/4P74AP1ZC2gvM40vmsj9NvC/qAriwFESsGX54p4twa5UqXsBpHt+Wfp4g
OBnMbBvb+3OAklxRQLfOY/0a+a6lLK4j8xK0ESoCdWJJVWuM3T3TUhJnbYjS5bcG
sH4=
-----END CERTIFICATE REQUEST-----
