Certificate Request:
    Data:
        Version: 1 (0x0)
        Subject: C = IT, O = cini, GN = Giovanni, SN = Mazzeo, CN = cini.org.it
        Subject Public Key Info:
            Public Key Algorithm: rsaEncryption
                RSA Public-Key: (2048 bit)
                Modulus:
                    00:c5:c9:e4:bd:b6:51:0d:3f:a1:60:79:74:31:8e:
                    ed:d0:bd:d1:2e:be:4b:fa:4e:73:4e:a0:15:56:8b:
                    f0:13:58:3d:df:41:fc:2b:8c:6f:e5:ec:2a:6d:82:
                    51:84:26:87:2e:b6:19:1d:a6:a1:33:46:24:da:49:
                    af:f3:0f:f6:b3:ec:f7:63:00:55:ab:40:9d:b0:76:
                    35:6e:2a:fd:f7:ee:ed:07:6a:a0:6f:4e:08:99:74:
                    12:c9:43:d6:76:1f:e3:e4:8b:72:c9:51:fa:6e:fe:
                    8d:b4:66:6b:06:b0:e7:eb:c0:7f:d5:37:7f:fa:65:
                    17:08:b3:c3:f5:17:e6:9c:9a:a8:48:65:36:64:c7:
                    5b:c6:d0:ad:2b:96:7f:7d:7f:b3:8d:f8:06:67:bd:
                    50:4f:79:af:ce:0f:ec:ae:61:22:f6:9c:1c:10:7a:
                    3a:4d:ea:39:77:b7:77:83:82:3c:15:60:c1:07:0a:
                    d3:64:ad:98:24:bf:8d:e3:7a:e4:d3:b2:41:1e:ae:
                    b5:d5:b2:b9:7a:ed:28:13:0e:92:cc:83:87:ee:d2:
                    75:00:28:bc:e3:b8:51:b8:3f:a8:de:16:94:96:8b:
                    d8:b3:a7:49:9d:bf:52:45:9e:88:ea:a5:91:16:d1:
                    2e:79:05:3a:62:14:dd:4b:a9:d6:22:3d:59:bd:9d:
                    e5:d7
                Exponent: 65537 (0x10001)
        Attributes:
        Requested Extensions:
            X509v3 Key Usage: critical
                Digital Signature
            X509v3 Extended Key Usage: 
                TLS Web Client Authentication
            X509v3 Basic Constraints: critical
                CA:FALSE
            X509v3 Subject Key Identifier: 
                FA:13:D9:88:BC:CB:64:68:86:DE:A0:D9:99:25:81:16:6B:93:31:77
    Signature Algorithm: sha512WithRSAEncryption
         96:b4:87:3f:10:f7:e5:c8:b4:6f:bf:44:a9:33:90:4d:99:07:
         04:d9:d1:80:15:3c:3f:33:80:f6:ea:5b:86:81:6d:f0:4e:57:
         2b:00:7c:dd:fe:94:73:1b:7e:f6:8f:1b:dc:f4:41:89:61:ca:
         b2:87:fb:2a:2d:e5:36:2d:4f:03:79:a8:19:7e:52:d6:a7:f8:
         f0:e9:5b:40:32:ed:c6:d1:96:01:50:75:2c:c5:15:c0:f7:dc:
         a1:a2:4a:a0:9f:c0:c8:46:8a:c1:df:d4:e0:10:cc:ec:02:03:
         00:3d:99:d7:a7:59:63:67:49:b9:e1:12:0d:cf:81:95:85:fb:
         ec:aa:e5:22:8c:bb:cd:36:cc:8b:ee:45:c2:b2:d4:72:82:f5:
         3a:f3:e2:c5:0e:0b:1e:08:ea:e2:25:f7:e0:14:a5:92:98:eb:
         70:01:fa:2c:af:02:fc:7b:90:7e:ba:ee:b3:47:10:c1:97:fe:
         3a:53:e2:bc:c4:70:da:6d:e8:63:ab:34:7d:e5:e2:ca:f2:a4:
         4b:88:f5:ae:78:d1:d3:bf:88:37:01:b9:63:6f:93:0f:13:ab:
         f7:55:cb:78:04:01:f2:4d:34:39:be:e7:b2:6e:8b:d7:de:55:
         de:c4:e4:09:a4:11:76:1a:91:ec:d2:dc:a6:30:29:f0:d3:2c:
         b0:5b:ef:89
-----BEGIN CERTIFICATE REQUEST-----
MIIC/jCCAeYCAQAwVjELMAkGA1UEBhMCSVQxDTALBgNVBAoMBGNpbmkxETAPBgNV
BCoMCEdpb3Zhbm5pMQ8wDQYDVQQEDAZNYXp6ZW8xFDASBgNVBAMMC2Npbmkub3Jn
Lml0MIIBIjANBgkqhkiG9w0BAQEFAAOCAQ8AMIIBCgKCAQEAxcnkvbZRDT+hYHl0
MY7t0L3RLr5L+k5zTqAVVovwE1g930H8K4xv5ewqbYJRhCaHLrYZHaahM0Yk2kmv
8w/2s+z3YwBVq0CdsHY1bir99+7tB2qgb04ImXQSyUPWdh/j5ItyyVH6bv6NtGZr
BrDn68B/1Td/+mUXCLPD9RfmnJqoSGU2ZMdbxtCtK5Z/fX+zjfgGZ71QT3mvzg/s
rmEi9pwcEHo6Teo5d7d3g4I8FWDBBwrTZK2YJL+N43rk07JBHq611bK5eu0oEw6S
zIOH7tJ1ACi847hRuD+o3haUlovYs6dJnb9SRZ6I6qWRFtEueQU6YhTdS6nWIj1Z
vZ3l1wIDAQABoGMwYQYJKoZIhvcNAQkOMVQwUjAOBgNVHQ8BAf8EBAMCB4AwEwYD
VR0lBAwwCgYIKwYBBQUHAwIwDAYDVR0TAQH/BAIwADAdBgNVHQ4EFgQU+hPZiLzL
ZGiG3qDZmSWBFmuTMXcwDQYJKoZIhvcNAQENBQADggEBAJa0hz8Q9+XItG+/RKkz
kE2ZBwTZ0YAVPD8zgPbqW4aBbfBOVysAfN3+lHMbfvaPG9z0QYlhyrKH+yot5TYt
TwN5qBl+Utan+PDpW0Ay7cbRlgFQdSzFFcD33KGiSqCfwMhGisHf1OAQzOwCAwA9
mdenWWNnSbnhEg3PgZWF++yq5SKMu802zIvuRcKy1HKC9Trz4sUOCx4I6uIl9+AU
pZKY63AB+iyvAvx7kH667rNHEMGX/jpT4rzEcNpt6GOrNH3l4srypEuI9a540dO/
iDcBuWNvkw8Tq/dVy3gEAfJNNDm+57Jui9feVd7E5AmkEXYakezS3KYwKfDTLLBb
74k=
-----END CERTIFICATE REQUEST-----
