Certificate Request:
    Data:
        Version: 1 (0x0)
        Subject: C = IT, O = cini, GN = Giovanni, SN = Mazzeo, CN = cini.org.it
        Subject Public Key Info:
            Public Key Algorithm: rsaEncryption
                RSA Public-Key: (2048 bit)
                Modulus:
                    00:d5:4e:90:28:54:d5:40:8c:db:0c:73:df:74:09:
                    7d:08:90:f3:ea:fd:0e:6b:92:42:f3:43:59:37:42:
                    90:05:e0:ff:12:f3:1f:8f:73:38:14:2a:ee:56:fb:
                    a0:85:5d:92:b6:35:d1:33:83:0a:d0:be:77:8f:7b:
                    39:6c:bf:a9:15:01:1f:b6:c0:93:69:d4:2d:16:d4:
                    9b:78:a0:c2:77:8f:e7:e7:56:08:06:ca:b7:0c:a4:
                    52:4a:52:2f:ee:c2:e1:1f:c4:2c:54:cf:c1:d3:19:
                    a6:b8:a2:f1:ae:11:d9:6b:66:18:90:14:a0:80:a3:
                    fd:85:41:32:8f:ce:15:ef:76:db:69:3f:d3:db:f7:
                    ac:37:af:47:16:ac:21:73:d1:05:e4:29:e3:f9:45:
                    1d:57:09:8c:be:d4:da:29:b1:fc:f6:22:0c:a9:3d:
                    1f:f5:5f:18:88:80:d9:e9:6e:7e:a7:44:93:fb:2a:
                    ce:d3:d0:f2:c7:05:6e:44:c7:2e:f9:ea:25:f6:59:
                    f8:c1:31:fd:ba:c3:29:17:2e:48:42:1f:a0:b8:62:
                    bf:8a:fa:fe:38:48:e9:5b:f1:c4:f8:7e:a6:5c:2d:
                    a2:03:33:e5:67:e1:7f:98:4b:3e:c1:01:c0:7b:bc:
                    a5:9b:3b:f0:62:ce:f3:0c:a2:51:16:d5:63:f1:76:
                    7d:1f
                Exponent: 65537 (0x10001)
        Attributes:
        Requested Extensions:
            X509v3 Key Usage: critical
                Non Repudiation
            X509v3 Extended Key Usage: 
                OCSP Signing
            X509v3 Basic Constraints: critical
                CA:FALSE
            X509v3 Subject Key Identifier: 
                BA:F8:1C:4B:D0:50:64:8F:51:6F:E8:1B:18:DE:D7:D7:8B:4E:7C:BE
    Signature Algorithm: sha512WithRSAEncryption
         c9:88:e2:9a:0f:69:d6:cf:8e:e7:1f:f4:21:24:a4:00:2a:11:
         59:30:ae:ce:a7:dd:a3:d1:28:ed:60:66:c0:a3:46:0a:92:6d:
         9a:70:97:a5:f0:33:48:d3:b3:1e:5e:58:7d:64:21:10:d8:ce:
         73:47:c7:d1:c3:d6:fa:44:46:48:ec:16:ac:40:b2:95:56:9e:
         9e:41:e1:a7:e9:20:3e:0e:2d:31:55:5c:35:04:7a:34:da:71:
         24:6c:a4:6a:3e:30:42:aa:73:de:43:16:96:df:c1:ec:ab:d0:
         e4:f9:82:26:eb:43:b9:04:b6:35:80:fc:c5:d9:48:55:b3:07:
         56:47:5f:ac:07:5a:73:50:4c:57:09:63:2e:96:3b:f3:d0:4b:
         11:27:ed:f7:56:ad:8a:98:cb:b9:8f:4f:2f:3a:52:54:7a:1b:
         b4:1f:9d:4c:93:70:cf:68:5b:6a:78:a5:b6:d9:0b:0b:8a:ac:
         5a:d4:4e:ea:b1:f9:54:af:16:1c:92:2f:38:0b:41:87:fe:52:
         68:92:54:92:bf:17:7c:56:99:27:de:1b:de:90:02:2e:d2:6a:
         61:53:53:84:7c:eb:a9:3d:9b:17:e2:b5:60:15:6f:16:59:0b:
         eb:75:ee:d7:86:89:46:7e:91:2b:8b:cd:75:60:87:c9:6c:5f:
         ea:6b:ee:db
-----BEGIN CERTIFICATE REQUEST-----
MIIC/jCCAeYCAQAwVjELMAkGA1UEBhMCSVQxDTALBgNVBAoMBGNpbmkxETAPBgNV
BCoMCEdpb3Zhbm5pMQ8wDQYDVQQEDAZNYXp6ZW8xFDASBgNVBAMMC2Npbmkub3Jn
Lml0MIIBIjANBgkqhkiG9w0BAQEFAAOCAQ8AMIIBCgKCAQEA1U6QKFTVQIzbDHPf
dAl9CJDz6v0Oa5JC80NZN0KQBeD/EvMfj3M4FCruVvughV2StjXRM4MK0L53j3s5
bL+pFQEftsCTadQtFtSbeKDCd4/n51YIBsq3DKRSSlIv7sLhH8QsVM/B0xmmuKLx
rhHZa2YYkBSggKP9hUEyj84V73bbaT/T2/esN69HFqwhc9EF5Cnj+UUdVwmMvtTa
KbH89iIMqT0f9V8YiIDZ6W5+p0ST+yrO09DyxwVuRMcu+eol9ln4wTH9usMpFy5I
Qh+guGK/ivr+OEjpW/HE+H6mXC2iAzPlZ+F/mEs+wQHAe7ylmzvwYs7zDKJRFtVj
8XZ9HwIDAQABoGMwYQYJKoZIhvcNAQkOMVQwUjAOBgNVHQ8BAf8EBAMCBkAwEwYD
VR0lBAwwCgYIKwYBBQUHAwkwDAYDVR0TAQH/BAIwADAdBgNVHQ4EFgQUuvgcS9BQ
ZI9Rb+gbGN7X14tOfL4wDQYJKoZIhvcNAQENBQADggEBAMmI4poPadbPjucf9CEk
pAAqEVkwrs6n3aPRKO1gZsCjRgqSbZpwl6XwM0jTsx5eWH1kIRDYznNHx9HD1vpE
RkjsFqxAspVWnp5B4afpID4OLTFVXDUEejTacSRspGo+MEKqc95DFpbfweyr0OT5
gibrQ7kEtjWA/MXZSFWzB1ZHX6wHWnNQTFcJYy6WO/PQSxEn7fdWrYqYy7mPTy86
UlR6G7QfnUyTcM9oW2p4pbbZCwuKrFrUTuqx+VSvFhySLzgLQYf+UmiSVJK/F3xW
mSfeG96QAi7SamFTU4R866k9mxfitWAVbxZZC+t17teGiUZ+kSuLzXVgh8lsX+pr
7ts=
-----END CERTIFICATE REQUEST-----
