Certificate Request:
    Data:
        Version: 1 (0x0)
        Subject: C = IT, O = cini, GN = Giovanni, SN = Mazzeo, CN = cini.org.it
        Subject Public Key Info:
            Public Key Algorithm: rsaEncryption
                RSA Public-Key: (2048 bit)
                Modulus:
                    00:b6:77:76:76:e3:44:21:02:67:d9:85:0f:a0:a1:
                    33:d6:ff:d0:b8:a7:1d:fe:0d:cd:e6:39:fd:df:ee:
                    ff:41:c5:58:b7:77:53:02:44:37:20:9d:44:3b:da:
                    dc:f6:3d:21:45:78:11:0b:d9:3c:f0:9c:c0:45:13:
                    bf:47:85:5d:73:01:ee:92:55:3f:14:0b:65:7f:fc:
                    d9:a2:d7:ad:5c:d8:39:63:91:21:e6:06:da:49:da:
                    d2:2e:d2:76:f0:fe:4a:48:54:43:49:0a:5c:28:35:
                    48:ed:62:b5:43:e9:6e:b0:99:5d:a4:c3:54:12:7b:
                    67:9b:43:e4:ef:0b:f2:57:d3:a2:e7:71:c2:28:7f:
                    a6:a0:0f:35:44:ed:bf:9b:71:69:90:4f:6d:b6:15:
                    01:90:19:ac:cc:53:d1:fb:66:2f:ed:4e:c3:82:50:
                    72:d4:73:48:38:fa:12:f6:83:ee:3f:bf:a5:0a:0d:
                    90:12:9b:63:4d:98:86:81:6a:11:a1:b4:21:fc:ef:
                    c6:c3:6b:af:03:9c:fe:48:83:6a:d6:b7:ae:c9:88:
                    27:f1:3e:3a:4b:da:36:81:dc:45:39:08:aa:28:d6:
                    a0:dc:19:58:49:1b:cd:55:4a:5f:fa:24:03:a8:db:
                    69:a5:b7:33:46:c4:6f:51:27:ed:ca:63:bc:2c:bc:
                    54:c1
                Exponent: 65537 (0x10001)
        Attributes:
        Requested Extensions:
            X509v3 Key Usage: critical
                Digital Signature
            X509v3 Extended Key Usage: 
                TLS Web Client Authentication
            X509v3 Basic Constraints: critical
                CA:FALSE
            X509v3 Subject Key Identifier: 
                F6:93:64:06:23:34:50:DF:5C:DD:DB:56:DA:E1:C8:3D:23:70:AC:86
    Signature Algorithm: sha512WithRSAEncryption
         92:38:df:f6:5e:91:98:d4:e5:9b:59:21:cc:5f:0b:77:bf:78:
         d0:34:52:75:54:6e:2d:e8:61:f5:af:c8:d5:b3:de:c8:95:ac:
         7d:3f:a4:a0:60:85:61:78:ff:1e:c2:00:b2:75:2f:40:4d:91:
         f0:bf:ac:6b:1a:7b:e1:b6:d4:7b:85:02:1e:02:ec:4f:e9:bb:
         d0:2e:e9:75:39:37:97:f4:7e:d8:a4:03:b8:20:9a:0c:9a:42:
         3d:5e:92:0e:5c:ae:27:5e:3e:75:e9:58:2a:46:b7:67:fd:80:
         07:3a:4b:32:1b:05:e6:a0:00:c1:69:47:3a:29:71:f9:d2:d9:
         cf:1a:21:f3:35:dd:45:50:ce:e2:12:ea:ba:40:72:a1:3d:b2:
         df:a9:c8:3c:bc:64:1d:6f:ba:f1:42:9b:11:45:d0:bb:d2:ff:
         bf:49:b3:61:e3:48:7c:82:76:f4:52:39:1b:88:fd:1c:62:5a:
         20:dc:a2:71:50:84:49:00:d6:4b:25:e3:26:14:98:b3:4f:3b:
         c0:25:94:78:16:7d:7f:25:a7:e7:41:03:19:ce:6e:82:88:40:
         da:76:9c:b4:8c:6e:4b:ef:73:ae:fd:d2:c4:76:db:aa:7b:7d:
         a9:20:8f:8a:a3:b6:3d:cd:e0:83:ce:1d:80:88:aa:e4:87:63:
         97:9f:e1:3f
-----BEGIN CERTIFICATE REQUEST-----
MIIC/jCCAeYCAQAwVjELMAkGA1UEBhMCSVQxDTALBgNVBAoMBGNpbmkxETAPBgNV
BCoMCEdpb3Zhbm5pMQ8wDQYDVQQEDAZNYXp6ZW8xFDASBgNVBAMMC2Npbmkub3Jn
Lml0MIIBIjANBgkqhkiG9w0BAQEFAAOCAQ8AMIIBCgKCAQEAtnd2duNEIQJn2YUP
oKEz1v/QuKcd/g3N5jn93+7/QcVYt3dTAkQ3IJ1EO9rc9j0hRXgRC9k88JzARRO/
R4VdcwHuklU/FAtlf/zZotetXNg5Y5Eh5gbaSdrSLtJ28P5KSFRDSQpcKDVI7WK1
Q+lusJldpMNUEntnm0Pk7wvyV9Oi53HCKH+moA81RO2/m3FpkE9tthUBkBmszFPR
+2Yv7U7DglBy1HNIOPoS9oPuP7+lCg2QEptjTZiGgWoRobQh/O/Gw2uvA5z+SINq
1reuyYgn8T46S9o2gdxFOQiqKNag3BlYSRvNVUpf+iQDqNtppbczRsRvUSftymO8
LLxUwQIDAQABoGMwYQYJKoZIhvcNAQkOMVQwUjAOBgNVHQ8BAf8EBAMCB4AwEwYD
VR0lBAwwCgYIKwYBBQUHAwIwDAYDVR0TAQH/BAIwADAdBgNVHQ4EFgQU9pNkBiM0
UN9c3dtW2uHIPSNwrIYwDQYJKoZIhvcNAQENBQADggEBAJI43/ZekZjU5ZtZIcxf
C3e/eNA0UnVUbi3oYfWvyNWz3siVrH0/pKBghWF4/x7CALJ1L0BNkfC/rGsae+G2
1HuFAh4C7E/pu9Au6XU5N5f0ftikA7ggmgyaQj1ekg5cridePnXpWCpGt2f9gAc6
SzIbBeagAMFpRzopcfnS2c8aIfM13UVQzuIS6rpAcqE9st+pyDy8ZB1vuvFCmxFF
0LvS/79Js2HjSHyCdvRSORuI/RxiWiDconFQhEkA1ksl4yYUmLNPO8AllHgWfX8l
p+dBAxnOboKIQNp2nLSMbkvvc6790sR226p7fakgj4qjtj3N4IPOHYCIquSHY5ef
4T8=
-----END CERTIFICATE REQUEST-----
