Certificate Request:
    Data:
        Version: 1 (0x0)
        Subject: C = IT, O = cini, GN = Giovanni, SN = Mazzeo, CN = cini.org.it
        Subject Public Key Info:
            Public Key Algorithm: rsaEncryption
                RSA Public-Key: (2048 bit)
                Modulus:
                    00:c2:ab:d8:83:85:03:38:47:cb:16:fc:e9:1c:5a:
                    6f:6e:33:4a:1f:f5:9d:db:cb:92:87:82:b3:7a:c6:
                    b0:b7:ad:9e:97:bf:fd:93:64:1a:87:fb:5e:16:07:
                    92:10:5a:17:ac:19:a1:3b:9e:9a:fc:f7:b4:21:6d:
                    9e:ea:f6:07:20:1c:a5:12:6e:7f:cf:ca:77:97:45:
                    50:46:7c:86:09:19:9a:fc:1e:22:88:85:df:64:72:
                    d5:f0:b4:a1:4b:79:66:b5:c8:09:6a:cc:09:70:84:
                    9f:ce:da:b9:a3:8f:aa:d3:c1:8c:c4:c3:db:74:a4:
                    a6:4f:a7:59:db:bd:ea:7d:7e:9c:7e:5d:31:71:47:
                    94:56:2a:ce:e8:62:e3:aa:09:b5:90:50:cd:1c:ef:
                    85:db:bb:e6:4c:c1:c1:a3:43:18:4e:f4:be:db:0a:
                    05:a6:a1:c8:0b:7a:b8:d1:6b:e2:3f:ac:64:ae:39:
                    59:2b:65:c0:f9:34:1f:12:c0:a9:5d:f6:89:18:e1:
                    87:7e:54:48:f4:57:d1:51:9b:53:52:78:82:25:57:
                    66:72:34:89:81:f7:b8:22:1d:60:68:a5:7a:d2:38:
                    f5:67:ad:30:2b:5b:05:55:e3:52:25:6b:17:61:9c:
                    93:bf:d3:e9:fe:e5:80:a5:88:a5:d4:33:f9:fb:e0:
                    dc:7d
                Exponent: 65537 (0x10001)
        Attributes:
        Requested Extensions:
            X509v3 Key Usage: critical
                Key Encipherment
            X509v3 Extended Key Usage: 
                TLS Web Server Authentication
            X509v3 Basic Constraints: critical
                CA:FALSE
            X509v3 Subject Key Identifier: 
                32:95:F5:36:38:E2:BD:04:B4:FF:8E:66:D0:D1:92:28:C9:07:DD:23
    Signature Algorithm: sha512WithRSAEncryption
         65:ce:5e:c1:2d:a6:ca:4c:7e:84:a6:79:92:97:6d:81:7b:8c:
         67:ed:92:5d:70:71:98:8a:ab:af:91:06:d2:27:94:09:1a:25:
         70:20:59:4c:54:49:92:e4:64:7a:ef:29:78:e7:8c:26:6b:2d:
         0b:62:59:da:29:d9:24:66:4d:3a:89:2a:a9:2c:6d:24:54:f0:
         e8:2e:f1:b5:64:b4:3e:c5:2c:21:f9:80:b8:6a:ae:fc:73:83:
         d8:ee:c2:de:ca:5e:9b:4d:1e:45:f0:b5:89:d5:3b:32:70:86:
         32:f9:6f:f1:eb:4b:b2:31:b2:f8:c6:9d:ba:90:4f:08:c4:b9:
         ff:7f:ab:fa:c1:6b:dc:32:99:d6:01:93:54:dc:2b:98:46:84:
         f6:f6:3e:4c:3f:08:c8:8b:dd:b7:92:7c:70:32:ea:e5:50:3e:
         bc:50:fe:76:85:03:9d:51:f4:20:2e:73:f2:8e:5c:2d:b2:34:
         72:79:8d:86:bd:3d:0d:d6:ad:89:5c:22:ef:c1:55:41:94:4b:
         07:a5:e5:22:bd:d8:d7:90:34:64:99:5e:f5:87:c1:4b:eb:a1:
         50:96:d9:81:15:3f:85:5e:8c:d9:a4:ac:4a:4c:e3:7d:e2:08:
         21:58:3f:26:bc:27:53:cf:51:c3:6f:28:ce:bb:d1:c3:8d:16:
         e7:ff:8d:2c
-----BEGIN CERTIFICATE REQUEST-----
MIIC/jCCAeYCAQAwVjELMAkGA1UEBhMCSVQxDTALBgNVBAoMBGNpbmkxETAPBgNV
BCoMCEdpb3Zhbm5pMQ8wDQYDVQQEDAZNYXp6ZW8xFDASBgNVBAMMC2Npbmkub3Jn
Lml0MIIBIjANBgkqhkiG9w0BAQEFAAOCAQ8AMIIBCgKCAQEAwqvYg4UDOEfLFvzp
HFpvbjNKH/Wd28uSh4Kzesawt62el7/9k2Qah/teFgeSEFoXrBmhO56a/Pe0IW2e
6vYHIBylEm5/z8p3l0VQRnyGCRma/B4iiIXfZHLV8LShS3lmtcgJaswJcISfztq5
o4+q08GMxMPbdKSmT6dZ273qfX6cfl0xcUeUVirO6GLjqgm1kFDNHO+F27vmTMHB
o0MYTvS+2woFpqHIC3q40WviP6xkrjlZK2XA+TQfEsCpXfaJGOGHflRI9FfRUZtT
UniCJVdmcjSJgfe4Ih1gaKV60jj1Z60wK1sFVeNSJWsXYZyTv9Pp/uWApYil1DP5
++DcfQIDAQABoGMwYQYJKoZIhvcNAQkOMVQwUjAOBgNVHQ8BAf8EBAMCBSAwEwYD
VR0lBAwwCgYIKwYBBQUHAwEwDAYDVR0TAQH/BAIwADAdBgNVHQ4EFgQUMpX1Njji
vQS0/45m0NGSKMkH3SMwDQYJKoZIhvcNAQENBQADggEBAGXOXsEtpspMfoSmeZKX
bYF7jGftkl1wcZiKq6+RBtInlAkaJXAgWUxUSZLkZHrvKXjnjCZrLQtiWdop2SRm
TTqJKqksbSRU8Ogu8bVktD7FLCH5gLhqrvxzg9juwt7KXptNHkXwtYnVOzJwhjL5
b/HrS7IxsvjGnbqQTwjEuf9/q/rBa9wymdYBk1TcK5hGhPb2Pkw/CMiL3beSfHAy
6uVQPrxQ/naFA51R9CAuc/KOXC2yNHJ5jYa9PQ3WrYlcIu/BVUGUSwel5SK92NeQ
NGSZXvWHwUvroVCW2YEVP4VejNmkrEpM433iCCFYPya8J1PPUcNvKM670cONFuf/
jSw=
-----END CERTIFICATE REQUEST-----
