Certificate Request:
    Data:
        Version: 1 (0x0)
        Subject: C = IT, O = cini, GN = Giovanni, SN = Mazzeo, CN = cini.org.it
        Subject Public Key Info:
            Public Key Algorithm: rsaEncryption
                RSA Public-Key: (2048 bit)
                Modulus:
                    00:9f:06:ea:74:4d:08:5b:7f:a6:45:77:a0:2e:61:
                    b7:4a:c5:8c:e1:c2:d3:a0:8a:81:40:d2:a7:02:5b:
                    0c:73:16:43:ae:f2:43:36:cf:e2:39:7a:c8:31:19:
                    9a:9e:09:b8:b2:61:d9:24:6d:51:0a:31:ec:bc:9f:
                    68:35:27:d6:47:47:3d:59:77:23:4b:bb:02:2f:39:
                    18:cd:36:fd:3b:50:fc:fb:56:fa:40:26:c0:f0:ad:
                    9d:e1:69:8c:f4:ee:c0:67:0c:3c:6f:0d:61:70:fb:
                    fd:2f:b5:7f:6c:04:08:2c:12:78:f3:67:6c:67:83:
                    72:3d:bf:bf:73:19:72:a0:86:0a:3a:ec:80:1b:5f:
                    a9:3c:08:49:5c:7a:8e:b1:1a:be:28:df:c7:1e:b1:
                    35:0a:b8:98:f3:20:02:fe:67:1a:a4:d4:84:07:10:
                    26:31:62:13:56:0b:1e:50:24:98:df:fe:74:2f:2c:
                    3b:39:31:c1:14:7c:e8:af:3c:91:98:ad:f4:fb:11:
                    00:cf:b8:76:51:9b:89:e6:ea:11:85:77:e3:92:20:
                    fd:bc:b4:41:cd:01:4d:5e:9b:e0:1b:da:af:4e:f9:
                    96:23:47:dd:d8:34:58:11:04:de:b4:55:0b:8e:9d:
                    96:31:71:3d:35:23:50:ff:0d:47:2d:6c:84:52:0c:
                    aa:c9
                Exponent: 65537 (0x10001)
        Attributes:
        Requested Extensions:
            X509v3 Key Usage: critical
                Key Encipherment
            X509v3 Extended Key Usage: 
                TLS Web Server Authentication
            X509v3 Basic Constraints: critical
                CA:FALSE
            X509v3 Subject Key Identifier: 
                5F:C3:E9:3B:60:FB:C8:E5:6A:A7:D8:C7:FE:87:2D:F1:DA:CD:A0:82
    Signature Algorithm: sha512WithRSAEncryption
         6b:04:fb:36:0d:dd:b4:bf:ef:21:9f:0d:32:9f:32:c0:5f:84:
         34:80:49:26:e2:33:23:24:6d:ae:6a:3e:56:a4:3d:45:f5:59:
         d2:fc:7a:01:e2:3d:e4:e5:84:b1:05:e5:18:ba:63:62:ed:ca:
         9a:b8:3d:f8:60:f2:79:e7:7f:0e:dc:95:70:3d:dd:22:a1:e6:
         bf:c2:a1:3f:9c:ea:71:ed:5b:39:9c:bd:bd:ae:0f:ad:fb:89:
         96:20:ff:f5:3d:fd:aa:07:0b:6e:c4:fd:d5:f2:a5:01:37:a2:
         66:04:0c:38:e5:30:18:98:42:72:9e:45:66:61:4c:2e:46:b1:
         f5:ec:4f:9d:69:ca:d9:21:45:c3:b5:0f:fb:a5:74:00:58:46:
         2f:c3:8d:d1:4d:d1:ae:4d:84:32:cd:aa:8b:1d:72:65:3f:ea:
         cb:79:22:1b:19:78:e7:b8:92:e7:1b:8a:f7:ed:ba:0a:11:dd:
         fc:76:7b:1b:17:71:f4:8d:d0:b8:21:ab:ed:96:ac:d4:c1:75:
         af:a3:d7:d9:f0:d4:f7:55:84:16:dd:d8:04:52:d4:31:45:82:
         ec:3f:d0:91:a9:c5:33:bc:65:c7:9b:b0:ae:5a:13:f9:e1:90:
         26:0b:de:21:bd:8d:91:95:17:e5:5d:7a:90:d2:c9:e6:a8:61:
         f2:5d:2f:5c
-----BEGIN CERTIFICATE REQUEST-----
MIIC/jCCAeYCAQAwVjELMAkGA1UEBhMCSVQxDTALBgNVBAoMBGNpbmkxETAPBgNV
BCoMCEdpb3Zhbm5pMQ8wDQYDVQQEDAZNYXp6ZW8xFDASBgNVBAMMC2Npbmkub3Jn
Lml0MIIBIjANBgkqhkiG9w0BAQEFAAOCAQ8AMIIBCgKCAQEAnwbqdE0IW3+mRXeg
LmG3SsWM4cLToIqBQNKnAlsMcxZDrvJDNs/iOXrIMRmangm4smHZJG1RCjHsvJ9o
NSfWR0c9WXcjS7sCLzkYzTb9O1D8+1b6QCbA8K2d4WmM9O7AZww8bw1hcPv9L7V/
bAQILBJ482dsZ4NyPb+/cxlyoIYKOuyAG1+pPAhJXHqOsRq+KN/HHrE1CriY8yAC
/mcapNSEBxAmMWITVgseUCSY3/50Lyw7OTHBFHzorzyRmK30+xEAz7h2UZuJ5uoR
hXfjkiD9vLRBzQFNXpvgG9qvTvmWI0fd2DRYEQTetFULjp2WMXE9NSNQ/w1HLWyE
UgyqyQIDAQABoGMwYQYJKoZIhvcNAQkOMVQwUjAOBgNVHQ8BAf8EBAMCBSAwEwYD
VR0lBAwwCgYIKwYBBQUHAwEwDAYDVR0TAQH/BAIwADAdBgNVHQ4EFgQUX8PpO2D7
yOVqp9jH/oct8drNoIIwDQYJKoZIhvcNAQENBQADggEBAGsE+zYN3bS/7yGfDTKf
MsBfhDSASSbiMyMkba5qPlakPUX1WdL8egHiPeTlhLEF5Ri6Y2Ltypq4Pfhg8nnn
fw7clXA93SKh5r/CoT+c6nHtWzmcvb2uD637iZYg//U9/aoHC27E/dXypQE3omYE
DDjlMBiYQnKeRWZhTC5GsfXsT51pytkhRcO1D/uldABYRi/DjdFN0a5NhDLNqosd
cmU/6st5IhsZeOe4kucbivftugoR3fx2exsXcfSN0Lghq+2WrNTBda+j19nw1PdV
hBbd2ARS1DFFguw/0JGpxTO8ZcebsK5aE/nhkCYL3iG9jZGVF+VdepDSyeaoYfJd
L1w=
-----END CERTIFICATE REQUEST-----
