Certificate Request:
    Data:
        Version: 1 (0x0)
        Subject: C = IT, O = cini, GN = Giovanni, SN = Mazzeo, CN = cini.org.it
        Subject Public Key Info:
            Public Key Algorithm: rsaEncryption
                RSA Public-Key: (2048 bit)
                Modulus:
                    00:aa:60:a9:08:0e:5c:24:f5:ff:29:1d:a6:a8:bf:
                    52:89:b5:f6:7e:45:99:00:cf:d7:4d:f0:b5:77:53:
                    5a:eb:57:1f:8d:c8:52:b7:77:7d:af:dc:a6:72:72:
                    3a:b6:ed:1e:83:ec:0a:53:5f:a1:e2:22:17:1e:1b:
                    ff:47:ef:ac:b5:06:f0:54:b0:8a:b6:9b:39:a6:3c:
                    b2:bc:04:d2:9c:61:d2:82:ad:a6:ea:a8:de:b6:29:
                    70:8b:16:e9:93:22:fb:94:87:fb:e1:cd:72:e6:9f:
                    f2:5f:aa:ad:88:33:93:42:12:75:c8:d5:de:43:cf:
                    9c:f5:9f:1d:c4:43:74:fb:58:6f:72:c8:fd:86:55:
                    a7:a7:ee:80:68:ad:f3:b9:f8:57:fd:c3:c4:ef:6b:
                    e3:3f:ad:31:33:18:c5:88:2c:3c:9f:a4:c6:fc:c0:
                    b4:ca:ae:53:52:48:8d:c6:38:e6:8f:ed:3f:e1:89:
                    d4:6c:23:fe:5f:14:f5:a4:c5:b3:35:9a:9a:d3:e5:
                    b5:69:56:c8:4c:9a:e6:ee:94:02:97:bc:f9:9e:2f:
                    d7:33:0a:e2:a6:93:40:36:01:f6:a2:12:00:61:c4:
                    1b:a2:dd:1d:d3:ca:7b:68:90:74:bb:93:88:52:ec:
                    bc:20:ca:22:cd:ac:b0:20:e3:53:c0:06:9c:c3:60:
                    9c:2d
                Exponent: 65537 (0x10001)
        Attributes:
        Requested Extensions:
            X509v3 Key Usage: critical
                Key Encipherment
            X509v3 Extended Key Usage: 
                TLS Web Server Authentication
            X509v3 Basic Constraints: critical
                CA:FALSE
            X509v3 Subject Key Identifier: 
                34:DD:00:7B:41:0B:F5:71:08:04:B5:08:60:31:FF:46:85:1C:60:C6
    Signature Algorithm: sha512WithRSAEncryption
         9f:09:2e:1c:3d:d5:08:95:c6:5d:66:33:df:e8:c0:9a:4e:e0:
         84:8d:27:e5:b6:7f:b3:81:67:a6:80:1a:52:17:da:55:2d:65:
         54:a2:a5:ab:09:a8:23:3d:3a:f3:39:05:4c:4c:82:1a:75:5e:
         7f:61:4f:0c:1a:06:1f:b0:6f:d5:d7:aa:f6:e6:74:59:3f:26:
         9f:2e:ef:7e:4c:73:4a:45:80:76:74:95:20:e3:73:fb:28:2d:
         af:dd:7a:f3:4e:ce:4e:25:11:c9:f4:d1:66:d6:58:c8:62:42:
         d7:bb:22:7a:e5:28:13:e7:b6:66:a3:0f:02:61:03:d6:b8:19:
         bd:a9:c3:8d:66:9f:bb:06:96:0c:5a:25:05:47:a0:88:ae:1d:
         28:2d:a8:a4:b8:c4:58:9d:91:5e:a0:11:db:c3:83:2b:03:75:
         c8:42:34:ef:11:8e:26:27:dc:b4:0f:23:f9:0d:1d:70:8e:e8:
         8f:a1:24:37:e1:c6:9f:4d:93:34:92:9b:6c:91:b4:f6:ff:c7:
         95:5a:11:f9:67:45:43:fc:7b:45:03:ba:eb:c9:be:cc:9a:28:
         f1:96:ca:0a:02:df:54:5b:1f:c1:16:92:7e:42:4a:38:c8:2d:
         28:0c:c2:50:7a:39:1e:62:f9:7a:69:e3:93:4e:09:34:cb:fd:
         cb:bb:89:10
-----BEGIN CERTIFICATE REQUEST-----
MIIC/jCCAeYCAQAwVjELMAkGA1UEBhMCSVQxDTALBgNVBAoMBGNpbmkxETAPBgNV
BCoMCEdpb3Zhbm5pMQ8wDQYDVQQEDAZNYXp6ZW8xFDASBgNVBAMMC2Npbmkub3Jn
Lml0MIIBIjANBgkqhkiG9w0BAQEFAAOCAQ8AMIIBCgKCAQEAqmCpCA5cJPX/KR2m
qL9SibX2fkWZAM/XTfC1d1Na61cfjchSt3d9r9ymcnI6tu0eg+wKU1+h4iIXHhv/
R++stQbwVLCKtps5pjyyvATSnGHSgq2m6qjetilwixbpkyL7lIf74c1y5p/yX6qt
iDOTQhJ1yNXeQ8+c9Z8dxEN0+1hvcsj9hlWnp+6AaK3zufhX/cPE72vjP60xMxjF
iCw8n6TG/MC0yq5TUkiNxjjmj+0/4YnUbCP+XxT1pMWzNZqa0+W1aVbITJrm7pQC
l7z5ni/XMwrippNANgH2ohIAYcQbot0d08p7aJB0u5OIUuy8IMoizaywIONTwAac
w2CcLQIDAQABoGMwYQYJKoZIhvcNAQkOMVQwUjAOBgNVHQ8BAf8EBAMCBSAwEwYD
VR0lBAwwCgYIKwYBBQUHAwEwDAYDVR0TAQH/BAIwADAdBgNVHQ4EFgQUNN0Ae0EL
9XEIBLUIYDH/RoUcYMYwDQYJKoZIhvcNAQENBQADggEBAJ8JLhw91QiVxl1mM9/o
wJpO4ISNJ+W2f7OBZ6aAGlIX2lUtZVSipasJqCM9OvM5BUxMghp1Xn9hTwwaBh+w
b9XXqvbmdFk/Jp8u735Mc0pFgHZ0lSDjc/soLa/devNOzk4lEcn00WbWWMhiQte7
InrlKBPntmajDwJhA9a4Gb2pw41mn7sGlgxaJQVHoIiuHSgtqKS4xFidkV6gEdvD
gysDdchCNO8RjiYn3LQPI/kNHXCO6I+hJDfhxp9NkzSSm2yRtPb/x5VaEflnRUP8
e0UDuuvJvsyaKPGWygoC31RbH8EWkn5CSjjILSgMwlB6OR5i+Xpp45NOCTTL/cu7
iRA=
-----END CERTIFICATE REQUEST-----
