Certificate Request:
    Data:
        Version: 1 (0x0)
        Subject: C = IT, O = cini, GN = Giovanni, SN = Mazzeo, CN = cini.org.it
        Subject Public Key Info:
            Public Key Algorithm: rsaEncryption
                RSA Public-Key: (2048 bit)
                Modulus:
                    00:d5:af:bf:e3:cb:68:f7:2d:e1:8d:c2:1d:cd:63:
                    d5:ff:de:48:9e:e1:61:59:e2:68:a7:f8:df:e2:b2:
                    f8:6f:81:69:63:f2:73:fd:ab:1c:c3:fd:5a:12:97:
                    26:88:e8:ca:15:a8:0f:36:03:09:04:ef:1f:0e:52:
                    b2:47:ab:60:ca:a1:c2:87:9e:14:d6:d1:f8:f4:f2:
                    3c:3d:fc:94:0d:19:82:2d:07:9e:4e:60:ce:77:67:
                    22:dc:f6:0c:ad:07:b1:ea:62:04:31:ab:24:0e:97:
                    38:ba:fb:8f:1b:7c:41:c4:b1:0d:75:b6:a8:a7:fe:
                    39:f3:ea:47:fd:70:50:77:e0:6d:45:3d:e9:a5:32:
                    dd:ba:78:2e:43:18:11:95:1d:43:01:9a:7f:e9:6e:
                    b7:62:89:5a:6d:b1:e3:22:52:66:bc:f5:a3:86:db:
                    37:97:81:74:59:ee:c5:1c:0e:3e:37:30:f0:fb:16:
                    c8:10:7f:c6:91:33:cf:d2:e2:ae:de:23:e7:ec:18:
                    a6:40:c1:e9:2d:70:fc:84:65:cc:67:93:35:eb:3b:
                    c9:36:c8:a8:6b:23:d6:fe:97:9e:44:e7:53:cd:53:
                    03:ce:ef:ce:ed:a5:86:e8:8f:39:ee:06:eb:c5:f4:
                    4b:81:da:87:77:e7:64:b4:f4:08:57:df:23:16:07:
                    8b:59
                Exponent: 65537 (0x10001)
        Attributes:
        Requested Extensions:
            X509v3 Key Usage: critical
                Digital Signature
            X509v3 Extended Key Usage: 
                TLS Web Client Authentication
            X509v3 Basic Constraints: critical
                CA:FALSE
            X509v3 Subject Key Identifier: 
                8C:77:7E:7F:62:02:0A:88:2D:01:65:37:7B:C2:19:B5:B9:09:BE:AA
    Signature Algorithm: sha512WithRSAEncryption
         0c:15:be:14:df:d1:16:ba:09:08:70:ce:13:07:aa:20:40:3f:
         5c:9b:93:0e:a9:65:50:f1:80:c7:4d:10:7b:00:15:8b:d5:1b:
         16:ad:54:21:21:9a:67:b8:be:7b:5a:af:c1:a2:7b:d8:20:01:
         57:cb:b9:54:68:50:7f:57:56:c6:e6:5b:e6:f8:36:02:f6:4d:
         e9:49:a1:20:c5:04:84:d5:0a:86:fe:8a:30:ed:6c:d3:fa:55:
         cd:bf:f4:79:4d:a9:c3:e0:d8:8f:75:32:6c:f6:c7:31:04:1d:
         8b:21:90:d5:69:af:df:8e:c0:89:cf:a3:fb:e6:f3:c4:0b:35:
         19:3d:9f:1f:7c:3f:ac:23:8b:2e:6c:9d:ec:b9:c8:47:d9:e6:
         b9:cf:03:79:ae:a4:f2:82:b6:90:35:25:9b:3c:a9:81:80:53:
         93:c0:06:c8:b0:91:cc:22:aa:d1:bc:4f:e7:fa:37:02:cd:bd:
         76:51:62:2f:bf:ae:f7:7c:ca:25:e8:6f:6c:55:45:c0:ea:a2:
         c4:a1:58:32:a2:03:da:83:e7:53:1e:38:55:ef:56:4d:cd:e0:
         5f:a2:d7:28:88:75:8f:fb:42:22:ae:7b:61:5b:c3:96:2c:20:
         8f:8e:6a:df:d0:5f:5f:e1:c9:bc:f3:c9:b2:af:b2:12:ed:0b:
         d8:9c:84:b4
-----BEGIN CERTIFICATE REQUEST-----
MIIC/jCCAeYCAQAwVjELMAkGA1UEBhMCSVQxDTALBgNVBAoMBGNpbmkxETAPBgNV
BCoMCEdpb3Zhbm5pMQ8wDQYDVQQEDAZNYXp6ZW8xFDASBgNVBAMMC2Npbmkub3Jn
Lml0MIIBIjANBgkqhkiG9w0BAQEFAAOCAQ8AMIIBCgKCAQEA1a+/48to9y3hjcId
zWPV/95InuFhWeJop/jf4rL4b4FpY/Jz/ascw/1aEpcmiOjKFagPNgMJBO8fDlKy
R6tgyqHCh54U1tH49PI8PfyUDRmCLQeeTmDOd2ci3PYMrQex6mIEMaskDpc4uvuP
G3xBxLENdbaop/458+pH/XBQd+BtRT3ppTLdunguQxgRlR1DAZp/6W63YolabbHj
IlJmvPWjhts3l4F0We7FHA4+NzDw+xbIEH/GkTPP0uKu3iPn7BimQMHpLXD8hGXM
Z5M16zvJNsioayPW/peeROdTzVMDzu/O7aWG6I857gbrxfRLgdqHd+dktPQIV98j
FgeLWQIDAQABoGMwYQYJKoZIhvcNAQkOMVQwUjAOBgNVHQ8BAf8EBAMCB4AwEwYD
VR0lBAwwCgYIKwYBBQUHAwIwDAYDVR0TAQH/BAIwADAdBgNVHQ4EFgQUjHd+f2IC
CogtAWU3e8IZtbkJvqowDQYJKoZIhvcNAQENBQADggEBAAwVvhTf0Ra6CQhwzhMH
qiBAP1ybkw6pZVDxgMdNEHsAFYvVGxatVCEhmme4vntar8Gie9ggAVfLuVRoUH9X
VsbmW+b4NgL2TelJoSDFBITVCob+ijDtbNP6Vc2/9HlNqcPg2I91Mmz2xzEEHYsh
kNVpr9+OwInPo/vm88QLNRk9nx98P6wjiy5sney5yEfZ5rnPA3mupPKCtpA1JZs8
qYGAU5PABsiwkcwiqtG8T+f6NwLNvXZRYi+/rvd8yiXob2xVRcDqosShWDKiA9qD
51MeOFXvVk3N4F+i1yiIdY/7QiKue2Fbw5YsII+Oat/QX1/hybzzybKvshLtC9ic
hLQ=
-----END CERTIFICATE REQUEST-----
