Certificate Request:
    Data:
        Version: 1 (0x0)
        Subject: C = IT, O = cini, GN = Giovanni, SN = Mazzeo, CN = cini.org.it
        Subject Public Key Info:
            Public Key Algorithm: rsaEncryption
                RSA Public-Key: (2048 bit)
                Modulus:
                    00:ce:f5:ae:b6:0d:a6:7d:c5:11:ad:68:67:bb:54:
                    2a:07:e1:75:59:7e:36:30:23:91:80:79:a6:b2:78:
                    9a:60:11:d0:90:1b:a6:55:94:6e:79:aa:a7:e4:9d:
                    cc:4b:d2:e2:fd:15:a2:0c:0a:79:55:d3:ac:a7:52:
                    1d:7e:87:54:b0:64:c7:08:49:ed:ac:c4:a1:dd:1f:
                    1b:b7:93:06:37:3d:ab:1f:87:11:42:04:cd:cd:9c:
                    e9:5d:fa:ca:2c:60:c0:aa:0c:41:18:fa:11:9f:f0:
                    d2:ca:d0:da:60:46:69:5f:09:79:e5:00:4d:9f:00:
                    d0:6e:37:f1:62:47:ba:13:f9:8f:07:55:ac:c5:18:
                    e7:bf:cf:e4:65:36:82:72:8a:20:a4:dd:59:37:d6:
                    fc:44:81:c7:d6:a8:de:66:34:25:59:04:bd:48:2d:
                    7b:8d:54:9a:6a:44:0f:9c:52:c7:42:78:8c:7f:75:
                    49:66:26:37:df:76:e1:cf:74:ae:14:3b:50:9a:e0:
                    9b:7f:9a:f8:63:75:33:3a:6e:35:33:68:d7:cd:24:
                    b6:35:c1:88:5d:12:2d:3d:df:85:1e:30:bc:b8:2f:
                    7e:42:2f:f0:a1:8b:7b:49:68:5f:d6:41:2a:0d:9b:
                    f9:f0:b2:34:cb:bf:26:da:41:ff:2a:52:88:94:5a:
                    e4:21
                Exponent: 65537 (0x10001)
        Attributes:
        Requested Extensions:
            X509v3 Key Usage: critical
                Digital Signature
            X509v3 Extended Key Usage: 
                TLS Web Client Authentication
            X509v3 Basic Constraints: critical
                CA:FALSE
            X509v3 Subject Key Identifier: 
                55:A8:9D:30:46:87:DA:F6:78:A4:EC:CB:6C:66:F9:A5:7D:44:84:81
    Signature Algorithm: sha512WithRSAEncryption
         90:86:eb:46:7b:27:03:41:1f:6d:62:5e:86:df:3b:d1:c2:4c:
         0b:ae:90:81:30:21:3f:d1:3d:ca:aa:bd:78:a8:98:a2:dc:2f:
         d4:fe:ae:e9:c0:b9:3e:f2:7d:c4:50:02:07:ba:c6:16:86:23:
         4d:8a:f0:ee:c6:0c:5e:82:95:d9:0f:b6:b8:a5:34:c1:52:03:
         52:eb:68:45:fd:71:5f:8a:db:43:6b:5a:88:d9:dd:ea:63:6d:
         35:04:f4:31:34:bc:39:d6:98:27:4e:7d:fd:7e:5b:96:07:24:
         95:4c:ce:4a:1b:33:28:34:b0:4f:fc:d0:ab:99:3b:2b:0f:d1:
         f6:75:46:4e:9f:8a:f6:d1:cd:8b:29:e0:4c:87:00:bd:ba:11:
         35:6a:f1:df:9f:fb:c8:f7:21:37:8b:28:25:fb:55:69:d5:d3:
         4d:c4:60:0c:80:c4:f0:12:b5:ba:fc:de:00:bc:da:0a:30:fa:
         a2:24:35:c9:c2:09:1e:2c:86:af:1d:35:c7:6c:e3:a7:54:f6:
         4b:14:53:03:26:14:ad:6e:fb:72:bc:35:30:8d:3f:4a:80:5b:
         c3:1f:ee:e7:7f:8c:45:ca:97:2d:c5:0f:b6:ac:0a:63:f3:97:
         22:ef:6a:b8:90:98:37:3d:2b:50:e6:ea:9a:5a:af:a1:bc:1d:
         07:12:5d:0b
-----BEGIN CERTIFICATE REQUEST-----
MIIC/jCCAeYCAQAwVjELMAkGA1UEBhMCSVQxDTALBgNVBAoMBGNpbmkxETAPBgNV
BCoMCEdpb3Zhbm5pMQ8wDQYDVQQEDAZNYXp6ZW8xFDASBgNVBAMMC2Npbmkub3Jn
Lml0MIIBIjANBgkqhkiG9w0BAQEFAAOCAQ8AMIIBCgKCAQEAzvWutg2mfcURrWhn
u1QqB+F1WX42MCORgHmmsniaYBHQkBumVZRueaqn5J3MS9Li/RWiDAp5VdOsp1Id
fodUsGTHCEntrMSh3R8bt5MGNz2rH4cRQgTNzZzpXfrKLGDAqgxBGPoRn/DSytDa
YEZpXwl55QBNnwDQbjfxYke6E/mPB1WsxRjnv8/kZTaCcoogpN1ZN9b8RIHH1qje
ZjQlWQS9SC17jVSaakQPnFLHQniMf3VJZiY333bhz3SuFDtQmuCbf5r4Y3UzOm41
M2jXzSS2NcGIXRItPd+FHjC8uC9+Qi/woYt7SWhf1kEqDZv58LI0y78m2kH/KlKI
lFrkIQIDAQABoGMwYQYJKoZIhvcNAQkOMVQwUjAOBgNVHQ8BAf8EBAMCB4AwEwYD
VR0lBAwwCgYIKwYBBQUHAwIwDAYDVR0TAQH/BAIwADAdBgNVHQ4EFgQUVaidMEaH
2vZ4pOzLbGb5pX1EhIEwDQYJKoZIhvcNAQENBQADggEBAJCG60Z7JwNBH21iXobf
O9HCTAuukIEwIT/RPcqqvXiomKLcL9T+runAuT7yfcRQAge6xhaGI02K8O7GDF6C
ldkPtrilNMFSA1LraEX9cV+K20NrWojZ3epjbTUE9DE0vDnWmCdOff1+W5YHJJVM
zkobMyg0sE/80KuZOysP0fZ1Rk6fivbRzYsp4EyHAL26ETVq8d+f+8j3ITeLKCX7
VWnV003EYAyAxPAStbr83gC82gow+qIkNcnCCR4shq8dNcds46dU9ksUUwMmFK1u
+3K8NTCNP0qAW8Mf7ud/jEXKly3FD7asCmPzlyLvariQmDc9K1Dm6ppar6G8HQcS
XQs=
-----END CERTIFICATE REQUEST-----
