Certificate Request:
    Data:
        Version: 1 (0x0)
        Subject: C = IT, O = cini, GN = Giovanni, SN = Mazzeo, CN = cini.org.it
        Subject Public Key Info:
            Public Key Algorithm: rsaEncryption
                RSA Public-Key: (2048 bit)
                Modulus:
                    00:ac:c0:65:d8:39:15:04:65:2e:43:a9:b3:8b:62:
                    13:69:56:2f:ce:8a:45:41:38:48:b9:38:36:0e:39:
                    e9:6f:bf:27:a2:67:9d:13:f3:f6:d5:29:46:51:20:
                    39:54:7b:ca:7c:fb:c9:20:0d:57:85:71:60:82:ef:
                    87:8c:8d:03:fc:30:98:9c:22:3d:ad:95:ab:3a:73:
                    ec:5a:58:60:bc:39:76:1d:f2:a6:bd:8b:12:57:9e:
                    a8:68:86:43:1f:0b:7a:b6:ae:77:77:23:34:11:de:
                    75:9b:b1:0a:18:a3:75:14:0f:b5:a1:11:22:65:84:
                    0d:28:5f:29:5f:e7:e9:1d:2d:25:8e:a8:93:de:3f:
                    76:e1:33:9a:82:93:88:e8:c9:03:07:f7:53:be:a7:
                    e2:54:9f:cb:78:d3:cd:c1:be:a6:db:85:f0:55:bd:
                    87:46:b8:63:30:f0:c4:2f:e3:e6:02:70:a8:63:f5:
                    d0:d7:5b:f0:76:b9:03:cd:fd:c2:ea:94:9c:17:0c:
                    fa:43:7b:0a:c7:21:82:2a:6c:be:c0:2a:26:0a:52:
                    99:bb:63:50:a7:68:40:1a:68:af:1a:1c:61:b3:ff:
                    f6:d4:48:0c:36:c6:cb:33:7f:aa:52:85:4c:8d:e1:
                    62:4c:81:30:71:26:78:13:70:d6:15:26:61:fd:58:
                    1d:a9
                Exponent: 65537 (0x10001)
        Attributes:
        Requested Extensions:
            X509v3 Key Usage: critical
                Digital Signature, Non Repudiation
            X509v3 Basic Constraints: critical
                CA:FALSE
            X509v3 Subject Key Identifier: 
                78:A7:AC:9D:46:84:86:2F:3D:F2:F2:C3:A3:F2:71:58:13:28:DD:2C
    Signature Algorithm: sha512WithRSAEncryption
         5a:56:35:dd:5c:5d:c2:3b:53:73:e4:73:9b:c3:1d:2c:d9:5b:
         71:31:32:55:07:89:d2:31:78:db:d7:06:61:af:0f:61:01:2c:
         a7:e0:58:3f:b7:62:e9:30:66:2c:c1:c6:d1:7a:2d:99:e3:1a:
         1d:3e:1e:2f:18:10:32:64:36:fb:39:49:8b:57:10:ea:b8:0d:
         ee:78:10:16:22:79:1d:c8:67:be:20:23:cb:cd:36:56:35:23:
         6d:b3:39:96:ef:b5:a8:ac:3a:73:ca:4a:c2:77:fd:4c:c6:eb:
         08:4b:72:00:2b:1e:08:1c:a1:83:59:38:34:5e:fb:71:f5:50:
         41:30:eb:3a:d9:16:f4:16:d8:a5:59:0f:cc:63:d1:54:65:14:
         5d:05:91:ea:b5:6a:4a:49:4f:86:82:a7:67:f4:63:ce:d1:6b:
         19:fb:f2:06:ec:38:9e:73:33:2b:1f:4d:36:51:2f:07:84:91:
         a9:b3:b1:c4:68:fa:8d:e5:b3:3a:c4:6b:4f:d4:9a:26:dc:03:
         c7:74:3b:52:9c:3f:dd:17:a7:4d:0a:f2:70:f9:37:13:7b:78:
         89:5a:98:ac:9b:d3:c1:94:05:36:e0:d2:ad:28:24:8e:ab:b4:
         62:53:84:82:16:32:9f:55:b8:93:b4:38:82:77:27:46:a5:c5:
         28:20:d3:03
-----BEGIN CERTIFICATE REQUEST-----
MIIC6TCCAdECAQAwVjELMAkGA1UEBhMCSVQxDTALBgNVBAoMBGNpbmkxETAPBgNV
BCoMCEdpb3Zhbm5pMQ8wDQYDVQQEDAZNYXp6ZW8xFDASBgNVBAMMC2Npbmkub3Jn
Lml0MIIBIjANBgkqhkiG9w0BAQEFAAOCAQ8AMIIBCgKCAQEArMBl2DkVBGUuQ6mz
i2ITaVYvzopFQThIuTg2Djnpb78nomedE/P21SlGUSA5VHvKfPvJIA1XhXFggu+H
jI0D/DCYnCI9rZWrOnPsWlhgvDl2HfKmvYsSV56oaIZDHwt6tq53dyM0Ed51m7EK
GKN1FA+1oREiZYQNKF8pX+fpHS0ljqiT3j924TOagpOI6MkDB/dTvqfiVJ/LeNPN
wb6m24XwVb2HRrhjMPDEL+PmAnCoY/XQ11vwdrkDzf3C6pScFwz6Q3sKxyGCKmy+
wComClKZu2NQp2hAGmivGhxhs//21EgMNsbLM3+qUoVMjeFiTIEwcSZ4E3DWFSZh
/VgdqQIDAQABoE4wTAYJKoZIhvcNAQkOMT8wPTAOBgNVHQ8BAf8EBAMCBsAwDAYD
VR0TAQH/BAIwADAdBgNVHQ4EFgQUeKesnUaEhi898vLDo/JxWBMo3SwwDQYJKoZI
hvcNAQENBQADggEBAFpWNd1cXcI7U3Pkc5vDHSzZW3ExMlUHidIxeNvXBmGvD2EB
LKfgWD+3YukwZizBxtF6LZnjGh0+Hi8YEDJkNvs5SYtXEOq4De54EBYieR3IZ74g
I8vNNlY1I22zOZbvtaisOnPKSsJ3/UzG6whLcgArHggcoYNZODRe+3H1UEEw6zrZ
FvQW2KVZD8xj0VRlFF0Fkeq1akpJT4aCp2f0Y87Raxn78gbsOJ5zMysfTTZRLweE
kamzscRo+o3lszrEa0/UmibcA8d0O1KcP90Xp00K8nD5NxN7eIlamKyb08GUBTbg
0q0oJI6rtGJThIIWMp9VuJO0OIJ3J0alxSgg0wM=
-----END CERTIFICATE REQUEST-----
