Certificate Request:
    Data:
        Version: 1 (0x0)
        Subject: C = IT, O = cini, GN = Giovanni, SN = Mazzeo, CN = cini.org.it
        Subject Public Key Info:
            Public Key Algorithm: rsaEncryption
                RSA Public-Key: (2048 bit)
                Modulus:
                    00:9e:bb:a9:34:7c:a7:7c:cf:d5:96:22:3d:a4:0a:
                    23:c6:37:71:af:21:ad:fa:7a:16:34:65:40:b0:c8:
                    f5:02:c1:2d:e1:b4:19:59:aa:87:d4:fa:e9:84:0a:
                    9e:d4:e3:65:25:92:d4:e7:ea:6d:93:51:b4:57:4c:
                    7b:f7:ad:4a:97:63:1e:6e:1d:51:68:60:8d:c0:2b:
                    61:c0:75:86:68:c3:f7:ca:18:dc:26:bb:98:f8:7a:
                    43:bd:39:65:ee:aa:80:86:31:af:9d:32:0d:a4:a2:
                    23:9c:a5:d4:e3:48:fd:3b:4f:92:58:ac:b0:fb:f7:
                    47:a0:f4:90:6c:99:ab:31:94:8d:af:f7:26:64:25:
                    e8:43:cf:c5:05:ca:86:40:8d:00:21:5a:07:94:30:
                    7e:91:85:bc:97:ea:4c:3d:6b:88:4d:c8:76:62:06:
                    13:9d:8e:d2:ef:57:7d:61:27:26:83:29:2d:28:87:
                    a0:58:fa:2a:6c:0a:89:a7:2e:a8:7d:7e:fb:15:c9:
                    50:00:f5:d0:e5:49:23:ce:e9:aa:13:4b:fd:ae:8d:
                    ed:a3:76:1c:22:b2:b2:78:a9:82:ec:ab:cf:0e:c0:
                    37:5d:04:68:86:23:24:95:c9:f9:da:21:0d:26:d0:
                    0e:a6:4f:7c:6b:57:32:51:d9:9e:02:4f:d9:39:77:
                    04:c3
                Exponent: 65537 (0x10001)
        Attributes:
        Requested Extensions:
            X509v3 Key Usage: critical
                Non Repudiation
            X509v3 Extended Key Usage: 
                OCSP Signing
            X509v3 Basic Constraints: critical
                CA:FALSE
            X509v3 Subject Key Identifier: 
                91:F7:0E:BB:F2:D1:3E:E3:96:7B:25:A9:3E:CE:9C:B0:DE:DF:52:69
    Signature Algorithm: sha512WithRSAEncryption
         93:4c:c1:3a:21:1b:84:ce:53:31:03:c4:fc:2f:c7:45:9a:2c:
         b3:c2:e0:80:98:4c:08:76:02:e5:6d:10:b7:d4:61:fd:80:08:
         2f:38:29:e0:0d:80:fd:10:eb:a9:8d:5f:91:ef:72:67:37:15:
         a0:f6:47:cf:55:97:a3:97:85:6e:95:71:8d:a5:01:73:e3:f0:
         fb:29:fb:5f:01:56:12:cd:77:f6:6c:81:c1:59:7c:7e:94:87:
         8b:9b:e9:38:09:76:2f:e6:f0:d3:d0:ae:68:78:78:d4:3a:63:
         31:5f:83:5b:df:c7:d3:58:78:c5:bf:e7:5e:e5:13:50:92:72:
         6c:07:9e:6b:e3:63:81:94:21:37:b0:a4:d0:84:7c:2f:44:e7:
         5d:8e:7a:6a:24:d8:31:40:36:c8:28:91:de:30:ad:73:a2:1e:
         76:4d:94:78:6d:b9:06:54:d3:c1:22:67:be:36:d5:55:b2:ea:
         a8:c2:69:7c:5e:9e:58:67:27:e6:71:3d:ca:df:17:1b:c4:4e:
         02:76:bc:a3:1b:78:93:78:32:48:92:33:e4:6f:3f:d7:f1:67:
         29:32:c7:8a:74:c9:72:89:06:db:ae:21:16:7a:2e:5b:dd:cb:
         20:8a:82:c4:c0:09:34:4c:06:ef:66:ff:62:7f:07:40:80:28:
         8e:94:c5:48
-----BEGIN CERTIFICATE REQUEST-----
MIIC/jCCAeYCAQAwVjELMAkGA1UEBhMCSVQxDTALBgNVBAoMBGNpbmkxETAPBgNV
BCoMCEdpb3Zhbm5pMQ8wDQYDVQQEDAZNYXp6ZW8xFDASBgNVBAMMC2Npbmkub3Jn
Lml0MIIBIjANBgkqhkiG9w0BAQEFAAOCAQ8AMIIBCgKCAQEAnrupNHynfM/VliI9
pAojxjdxryGt+noWNGVAsMj1AsEt4bQZWaqH1PrphAqe1ONlJZLU5+ptk1G0V0x7
961Kl2Mebh1RaGCNwCthwHWGaMP3yhjcJruY+HpDvTll7qqAhjGvnTINpKIjnKXU
40j9O0+SWKyw+/dHoPSQbJmrMZSNr/cmZCXoQ8/FBcqGQI0AIVoHlDB+kYW8l+pM
PWuITch2YgYTnY7S71d9YScmgyktKIegWPoqbAqJpy6ofX77FclQAPXQ5Ukjzumq
E0v9ro3to3YcIrKyeKmC7KvPDsA3XQRohiMklcn52iENJtAOpk98a1cyUdmeAk/Z
OXcEwwIDAQABoGMwYQYJKoZIhvcNAQkOMVQwUjAOBgNVHQ8BAf8EBAMCBkAwEwYD
VR0lBAwwCgYIKwYBBQUHAwkwDAYDVR0TAQH/BAIwADAdBgNVHQ4EFgQUkfcOu/LR
PuOWeyWpPs6csN7fUmkwDQYJKoZIhvcNAQENBQADggEBAJNMwTohG4TOUzEDxPwv
x0WaLLPC4ICYTAh2AuVtELfUYf2ACC84KeANgP0Q66mNX5Hvcmc3FaD2R89Vl6OX
hW6VcY2lAXPj8Psp+18BVhLNd/ZsgcFZfH6Uh4ub6TgJdi/m8NPQrmh4eNQ6YzFf
g1vfx9NYeMW/517lE1CScmwHnmvjY4GUITewpNCEfC9E512Oemok2DFANsgokd4w
rXOiHnZNlHhtuQZU08EiZ7421VWy6qjCaXxenlhnJ+ZxPcrfFxvETgJ2vKMbeJN4
MkiSM+RvP9fxZykyx4p0yXKJBtuuIRZ6LlvdyyCKgsTACTRMBu9m/2J/B0CAKI6U
xUg=
-----END CERTIFICATE REQUEST-----
