Certificate Request:
    Data:
        Version: 1 (0x0)
        Subject: C = ES, O = cini, GN = Giovanni, SN = Mazzeo, CN = cini.org.es
        Subject Public Key Info:
            Public Key Algorithm: rsaEncryption
                RSA Public-Key: (2048 bit)
                Modulus:
                    00:b1:b5:02:86:49:d3:17:03:88:0b:61:c5:5f:6b:
                    b7:d5:a6:a7:99:c8:8b:a0:ac:b4:95:6b:1d:35:2d:
                    8e:1a:05:c1:4f:72:d8:55:55:67:01:ed:55:10:94:
                    0f:7e:2c:b3:2b:5d:4f:4f:8b:cf:7d:b8:ce:80:1c:
                    c1:65:c7:32:85:95:c9:3b:01:f3:b0:ce:72:80:c9:
                    1c:17:db:22:91:bb:b8:1d:20:e3:78:dc:49:2f:9b:
                    75:bf:fb:af:d1:ff:2a:96:21:8e:c9:14:01:8c:59:
                    cb:27:ac:c0:51:d7:23:45:33:78:01:8a:f2:0e:97:
                    56:8f:e8:e2:9d:b5:19:8f:90:a1:64:bb:3c:36:6e:
                    2b:95:a5:07:c6:87:50:63:e4:ce:e2:a2:56:4c:3e:
                    50:e9:6e:65:09:29:7f:f8:dd:07:cf:47:43:38:2b:
                    5e:02:ef:ce:d5:be:50:bd:2a:a0:03:a3:81:f4:3c:
                    3e:0d:dd:2f:19:2d:4d:4f:d1:98:d6:a7:4c:db:b8:
                    6b:44:ee:64:d9:90:c9:c0:d0:66:ac:f6:a4:4b:87:
                    66:d0:fe:8c:a6:54:02:c4:bf:c7:61:52:48:04:27:
                    13:11:d5:77:6b:1e:75:3e:5a:27:75:cb:59:02:89:
                    58:84:30:62:99:f4:38:eb:b8:99:2c:3b:52:57:36:
                    22:7f
                Exponent: 65537 (0x10001)
        Attributes:
        Requested Extensions:
            X509v3 Key Usage: critical
                Key Encipherment
            X509v3 Extended Key Usage: 
                TLS Web Server Authentication
            X509v3 Basic Constraints: critical
                CA:FALSE
            X509v3 Subject Key Identifier: 
                91:3B:5C:9A:2D:6F:67:1F:E7:1E:92:E8:54:47:55:B5:32:09:6D:1B
    Signature Algorithm: sha512WithRSAEncryption
         03:4c:e1:4b:22:02:30:d8:4a:74:30:7f:5f:9d:e2:ad:35:d3:
         d8:88:19:0e:ba:b4:7e:d7:21:14:3a:5b:7b:74:3f:5c:96:5a:
         a2:a7:1e:7b:40:16:ab:52:68:c6:9d:86:63:39:26:10:40:ab:
         42:f8:da:ed:95:8e:53:35:2f:6e:ea:9a:6a:de:e9:7c:74:79:
         d8:1c:64:e9:16:2c:48:6e:dc:74:05:d7:0a:51:de:1a:d3:a5:
         4c:ff:5c:32:79:9f:0f:7f:ab:dd:c6:3f:3f:8d:e3:6a:16:a4:
         a2:c7:de:5d:45:0a:de:50:83:3b:1e:24:13:c4:3a:72:cf:28:
         95:10:51:6f:49:06:2e:14:4b:fc:84:c6:2f:4f:72:4d:b4:20:
         53:07:89:95:00:b8:87:9d:ad:4a:38:c8:c6:11:23:ad:05:f8:
         3c:b3:a1:5d:22:59:04:20:30:e9:a1:ad:26:d0:e6:28:11:96:
         4f:76:00:58:63:ce:70:f2:9d:1f:ce:3d:62:54:66:da:61:27:
         c3:5b:28:e8:48:46:68:c0:b5:1e:1e:87:54:32:b0:96:b6:9b:
         47:a5:f0:ce:dc:7f:63:19:cd:0c:f0:2a:8c:0f:d9:47:d6:9e:
         aa:bd:d3:c9:cd:51:c1:fe:88:3d:d8:28:e0:5d:f5:fd:77:42:
         66:c4:92:46
-----BEGIN CERTIFICATE REQUEST-----
MIIC/jCCAeYCAQAwVjELMAkGA1UEBhMCRVMxDTALBgNVBAoMBGNpbmkxETAPBgNV
BCoMCEdpb3Zhbm5pMQ8wDQYDVQQEDAZNYXp6ZW8xFDASBgNVBAMMC2Npbmkub3Jn
LmVzMIIBIjANBgkqhkiG9w0BAQEFAAOCAQ8AMIIBCgKCAQEAsbUChknTFwOIC2HF
X2u31aanmciLoKy0lWsdNS2OGgXBT3LYVVVnAe1VEJQPfiyzK11PT4vPfbjOgBzB
ZccyhZXJOwHzsM5ygMkcF9sikbu4HSDjeNxJL5t1v/uv0f8qliGOyRQBjFnLJ6zA
UdcjRTN4AYryDpdWj+jinbUZj5ChZLs8Nm4rlaUHxodQY+TO4qJWTD5Q6W5lCSl/
+N0Hz0dDOCteAu/O1b5QvSqgA6OB9Dw+Dd0vGS1NT9GY1qdM27hrRO5k2ZDJwNBm
rPakS4dm0P6MplQCxL/HYVJIBCcTEdV3ax51PlondctZAolYhDBimfQ467iZLDtS
VzYifwIDAQABoGMwYQYJKoZIhvcNAQkOMVQwUjAOBgNVHQ8BAf8EBAMCBSAwEwYD
VR0lBAwwCgYIKwYBBQUHAwEwDAYDVR0TAQH/BAIwADAdBgNVHQ4EFgQUkTtcmi1v
Zx/nHpLoVEdVtTIJbRswDQYJKoZIhvcNAQENBQADggEBAANM4UsiAjDYSnQwf1+d
4q0109iIGQ66tH7XIRQ6W3t0P1yWWqKnHntAFqtSaMadhmM5JhBAq0L42u2VjlM1
L27qmmre6Xx0edgcZOkWLEhu3HQF1wpR3hrTpUz/XDJ5nw9/q93GPz+N42oWpKLH
3l1FCt5QgzseJBPEOnLPKJUQUW9JBi4US/yExi9Pck20IFMHiZUAuIedrUo4yMYR
I60F+DyzoV0iWQQgMOmhrSbQ5igRlk92AFhjznDynR/OPWJUZtphJ8NbKOhIRmjA
tR4eh1QysJa2m0el8M7cf2MZzQzwKowP2UfWnqq908nNUcH+iD3YKOBd9f13QmbE
kkY=
-----END CERTIFICATE REQUEST-----
