Certificate Request:
    Data:
        Version: 1 (0x0)
        Subject: C = ES, O = cini, GN = Giovanni, SN = Mazzeo, CN = cini.org.es
        Subject Public Key Info:
            Public Key Algorithm: rsaEncryption
                RSA Public-Key: (2048 bit)
                Modulus:
                    00:df:25:a8:8a:cb:22:d0:b1:56:fd:38:41:46:37:
                    70:80:64:9f:6a:1c:81:af:1b:e1:00:68:8c:e2:eb:
                    b3:e3:d9:ab:14:7d:68:fc:3c:10:55:5d:c1:c1:78:
                    cf:8a:df:c4:73:a7:ab:e5:58:6c:cb:8b:db:d7:ac:
                    e2:18:84:63:3a:b4:47:ee:70:4b:2d:b5:9a:53:09:
                    82:f4:14:13:e9:1a:16:9e:8e:35:19:a1:bf:38:7d:
                    88:bf:f3:5b:70:fa:de:02:19:ad:c7:48:74:cd:0a:
                    17:e8:a7:22:78:47:0a:09:08:96:05:8e:00:cb:93:
                    78:89:59:3b:93:aa:f1:e2:29:66:93:31:97:9b:02:
                    c2:69:15:4d:fb:26:5b:a6:d0:2d:4d:9e:aa:d8:e2:
                    ff:3e:68:28:be:22:35:86:39:6e:a3:87:58:9a:42:
                    12:42:5e:f2:14:a7:5e:9f:ca:8f:6e:9b:31:ed:26:
                    93:3d:99:90:bc:72:56:3e:00:03:5f:dd:8a:80:ea:
                    37:f1:53:95:f5:f7:a5:ca:4a:db:49:e7:2a:61:26:
                    0b:25:5c:a0:d5:43:85:c7:af:74:f0:e6:ea:41:94:
                    4a:2f:75:3d:f3:2b:2e:b6:1b:06:bc:ff:62:75:df:
                    d2:6c:b0:6f:0e:22:59:8e:fb:4c:e9:e6:8a:15:36:
                    3d:f3
                Exponent: 65537 (0x10001)
        Attributes:
        Requested Extensions:
            X509v3 Key Usage: critical
                Digital Signature
            X509v3 Extended Key Usage: 
                TLS Web Client Authentication
            X509v3 Basic Constraints: critical
                CA:FALSE
            X509v3 Subject Key Identifier: 
                B7:EB:62:15:28:0B:F4:DC:4D:62:05:E0:94:42:9E:9D:16:CC:B4:9A
    Signature Algorithm: sha512WithRSAEncryption
         d9:a8:70:35:33:66:a4:32:6f:9a:58:e0:0d:5f:33:f9:05:ba:
         06:23:e0:74:1d:a1:3c:19:9b:bd:bd:c5:0c:6c:21:4d:35:55:
         3f:3d:17:a6:c7:38:90:86:70:ec:72:38:95:5c:cf:45:b1:2b:
         7f:89:7f:10:49:d7:8a:57:d1:b3:fa:88:a4:e1:02:b3:04:79:
         aa:a2:12:a5:5c:eb:be:03:0b:5b:0e:be:6e:85:b9:dd:7f:92:
         33:15:fe:e1:b5:e4:4c:ed:79:c3:87:6d:c3:66:f0:cf:06:25:
         b5:d9:bf:03:a4:ec:07:92:84:d2:7d:cb:dd:2c:8f:a9:42:99:
         80:fc:c8:cb:63:08:38:d7:a7:7b:21:b9:39:51:81:62:43:ff:
         ef:c5:2f:c8:e7:24:ac:82:70:02:7d:dc:01:49:88:d3:75:c6:
         ee:85:6f:1d:b4:0f:92:7c:89:1a:9b:6d:e9:53:0f:09:9f:71:
         94:1d:c9:ce:90:be:15:19:0b:d5:e4:a3:60:08:19:d1:7c:87:
         8e:66:b1:54:11:96:0e:c7:93:6f:70:ce:6f:43:d5:70:dc:56:
         a7:33:1e:fc:aa:d8:52:2c:30:03:6e:25:48:2e:41:1b:a7:5f:
         e4:bf:b0:c3:ec:d8:47:81:e4:3e:78:18:91:5d:a1:9b:ad:57:
         60:aa:71:5a
-----BEGIN CERTIFICATE REQUEST-----
MIIC/jCCAeYCAQAwVjELMAkGA1UEBhMCRVMxDTALBgNVBAoMBGNpbmkxETAPBgNV
BCoMCEdpb3Zhbm5pMQ8wDQYDVQQEDAZNYXp6ZW8xFDASBgNVBAMMC2Npbmkub3Jn
LmVzMIIBIjANBgkqhkiG9w0BAQEFAAOCAQ8AMIIBCgKCAQEA3yWoissi0LFW/ThB
RjdwgGSfahyBrxvhAGiM4uuz49mrFH1o/DwQVV3BwXjPit/Ec6er5Vhsy4vb16zi
GIRjOrRH7nBLLbWaUwmC9BQT6RoWno41GaG/OH2Iv/NbcPreAhmtx0h0zQoX6Kci
eEcKCQiWBY4Ay5N4iVk7k6rx4ilmkzGXmwLCaRVN+yZbptAtTZ6q2OL/PmgoviI1
hjluo4dYmkISQl7yFKden8qPbpsx7SaTPZmQvHJWPgADX92KgOo38VOV9felykrb
SecqYSYLJVyg1UOFx6908ObqQZRKL3U98ysuthsGvP9idd/SbLBvDiJZjvtM6eaK
FTY98wIDAQABoGMwYQYJKoZIhvcNAQkOMVQwUjAOBgNVHQ8BAf8EBAMCB4AwEwYD
VR0lBAwwCgYIKwYBBQUHAwIwDAYDVR0TAQH/BAIwADAdBgNVHQ4EFgQUt+tiFSgL
9NxNYgXglEKenRbMtJowDQYJKoZIhvcNAQENBQADggEBANmocDUzZqQyb5pY4A1f
M/kFugYj4HQdoTwZm729xQxsIU01VT89F6bHOJCGcOxyOJVcz0WxK3+JfxBJ14pX
0bP6iKThArMEeaqiEqVc674DC1sOvm6Fud1/kjMV/uG15EztecOHbcNm8M8GJbXZ
vwOk7AeShNJ9y90sj6lCmYD8yMtjCDjXp3shuTlRgWJD/+/FL8jnJKyCcAJ93AFJ
iNN1xu6Fbx20D5J8iRqbbelTDwmfcZQdyc6QvhUZC9Xko2AIGdF8h45msVQRlg7H
k29wzm9D1XDcVqczHvyq2FIsMANuJUguQRunX+S/sMPs2EeB5D54GJFdoZutV2Cq
cVo=
-----END CERTIFICATE REQUEST-----
