Certificate Request:
    Data:
        Version: 1 (0x0)
        Subject: C = ES, O = cini, GN = Giovanni, SN = Mazzeo, CN = cini.org.es
        Subject Public Key Info:
            Public Key Algorithm: rsaEncryption
                RSA Public-Key: (2048 bit)
                Modulus:
                    00:d2:cf:1a:e5:d6:26:4a:b7:30:06:2a:d6:df:cc:
                    5c:1c:ff:c4:48:0b:62:6b:c5:89:31:8c:f7:bf:58:
                    e1:2b:27:37:4c:59:95:8f:29:6a:91:4f:83:2b:4b:
                    e5:02:eb:de:b9:10:69:f6:84:b3:23:68:4e:d2:09:
                    4a:10:e6:23:bf:a1:95:35:91:a0:f3:6b:42:fb:d1:
                    be:cf:09:47:b1:2b:aa:d6:62:38:56:dc:d1:dd:c3:
                    28:41:7a:83:e1:ac:22:35:1b:47:d0:ef:96:0c:76:
                    15:72:40:08:6f:9d:55:c7:58:ac:80:c3:ee:d2:3a:
                    c0:45:cb:9f:00:d2:73:ad:19:40:a9:47:39:37:69:
                    bc:b9:9a:12:8b:43:c6:ec:e9:a4:cf:02:a9:ee:6c:
                    b3:ae:e1:f5:bb:6c:13:8c:70:00:65:1e:d0:34:80:
                    8e:b6:4e:37:a6:6c:b5:23:9e:45:1f:18:a8:75:c5:
                    e3:23:b2:f9:de:2f:e6:14:4a:3c:9c:15:3f:b9:96:
                    04:96:10:59:f4:ae:49:67:12:80:21:c9:ae:ec:35:
                    e2:1d:ec:aa:ba:b3:80:e2:7e:ef:7d:7e:a1:bc:ba:
                    8f:e8:7b:6e:b3:77:73:43:53:ca:a4:b3:26:ed:28:
                    a6:e2:54:6a:6d:dc:0c:e3:0a:97:4e:9d:d3:b3:dc:
                    71:d7
                Exponent: 65537 (0x10001)
        Attributes:
        Requested Extensions:
            X509v3 Key Usage: critical
                Digital Signature
            X509v3 Extended Key Usage: 
                TLS Web Client Authentication
            X509v3 Basic Constraints: critical
                CA:FALSE
            X509v3 Subject Key Identifier: 
                1D:34:74:B0:C9:55:10:66:16:55:28:42:B1:81:AE:2F:7B:4E:50:BC
    Signature Algorithm: sha512WithRSAEncryption
         08:63:15:5f:f0:a4:4b:60:9d:87:2f:22:e0:28:b5:5a:d8:9b:
         f2:65:61:b3:56:eb:f3:c6:9e:5a:c1:49:40:82:b9:c9:3a:08:
         d4:94:bb:e3:ab:d6:bf:fa:a9:2b:90:36:7a:f4:f3:db:ec:ce:
         cd:f2:6a:6e:f6:ae:9e:ad:ac:20:84:14:7f:ff:f4:75:bf:b2:
         a9:90:cf:10:1a:34:2f:b6:48:a8:66:1e:16:44:d4:58:2b:5a:
         5c:dc:bc:df:6f:ba:e4:7a:52:0a:52:f4:81:4c:12:9f:a6:a4:
         82:b0:e1:19:35:0c:0c:79:50:96:ff:2a:12:94:f4:0e:ba:1c:
         81:e9:a5:e5:1a:f1:b0:43:63:83:83:04:e8:4a:0f:aa:45:90:
         20:af:2e:de:33:0b:7d:8a:ed:93:79:b6:c8:6d:a5:ea:6c:3b:
         a6:de:f7:34:34:25:57:6c:f6:bc:e7:79:26:75:5d:30:4d:c8:
         41:53:97:8b:46:00:4f:3f:8c:5c:80:ed:f7:c4:e7:e7:a4:15:
         cf:be:62:fc:c5:5f:59:5a:49:6c:20:d7:fa:6f:8d:2f:da:93:
         0a:02:4a:fe:2e:b8:2b:00:27:df:0b:4d:5d:f1:04:92:0b:03:
         96:0e:44:ec:dd:b4:30:a5:b2:36:78:40:08:46:bb:0d:4d:6f:
         6c:2a:e5:08
-----BEGIN CERTIFICATE REQUEST-----
MIIC/jCCAeYCAQAwVjELMAkGA1UEBhMCRVMxDTALBgNVBAoMBGNpbmkxETAPBgNV
BCoMCEdpb3Zhbm5pMQ8wDQYDVQQEDAZNYXp6ZW8xFDASBgNVBAMMC2Npbmkub3Jn
LmVzMIIBIjANBgkqhkiG9w0BAQEFAAOCAQ8AMIIBCgKCAQEA0s8a5dYmSrcwBirW
38xcHP/ESAtia8WJMYz3v1jhKyc3TFmVjylqkU+DK0vlAuveuRBp9oSzI2hO0glK
EOYjv6GVNZGg82tC+9G+zwlHsSuq1mI4VtzR3cMoQXqD4awiNRtH0O+WDHYVckAI
b51Vx1isgMPu0jrARcufANJzrRlAqUc5N2m8uZoSi0PG7OmkzwKp7myzruH1u2wT
jHAAZR7QNICOtk43pmy1I55FHxiodcXjI7L53i/mFEo8nBU/uZYElhBZ9K5JZxKA
Icmu7DXiHeyqurOA4n7vfX6hvLqP6Htus3dzQ1PKpLMm7Sim4lRqbdwM4wqXTp3T
s9xx1wIDAQABoGMwYQYJKoZIhvcNAQkOMVQwUjAOBgNVHQ8BAf8EBAMCB4AwEwYD
VR0lBAwwCgYIKwYBBQUHAwIwDAYDVR0TAQH/BAIwADAdBgNVHQ4EFgQUHTR0sMlV
EGYWVShCsYGuL3tOULwwDQYJKoZIhvcNAQENBQADggEBAAhjFV/wpEtgnYcvIuAo
tVrYm/JlYbNW6/PGnlrBSUCCuck6CNSUu+Or1r/6qSuQNnr089vszs3yam72rp6t
rCCEFH//9HW/sqmQzxAaNC+2SKhmHhZE1FgrWlzcvN9vuuR6UgpS9IFMEp+mpIKw
4Rk1DAx5UJb/KhKU9A66HIHppeUa8bBDY4ODBOhKD6pFkCCvLt4zC32K7ZN5tsht
pepsO6be9zQ0JVds9rzneSZ1XTBNyEFTl4tGAE8/jFyA7ffE5+ekFc++YvzFX1la
SWwg1/pvjS/akwoCSv4uuCsAJ98LTV3xBJILA5YOROzdtDClsjZ4QAhGuw1Nb2wq
5Qg=
-----END CERTIFICATE REQUEST-----
