Certificate Request:
    Data:
        Version: 1 (0x0)
        Subject: C = ES, O = cini, GN = Giovanni, SN = Mazzeo, CN = cini.org.es
        Subject Public Key Info:
            Public Key Algorithm: rsaEncryption
                RSA Public-Key: (2048 bit)
                Modulus:
                    00:c6:f7:d5:a6:5a:48:1f:bf:7e:c2:7a:04:2b:26:
                    34:b2:82:8e:f3:a7:4f:c5:ab:9b:22:cb:b4:f7:24:
                    71:2c:a8:00:1d:08:45:8e:44:aa:80:f7:50:2b:15:
                    d7:88:74:78:af:a2:50:ea:ab:a5:9d:db:90:db:a5:
                    61:43:04:97:28:cb:54:8e:d9:41:77:44:10:83:a9:
                    d1:f0:a8:12:c4:01:8d:41:77:78:bf:d9:f2:5c:86:
                    09:c1:40:47:bd:2b:7e:f5:b0:3f:da:24:40:68:13:
                    4c:31:e9:db:bd:b5:ea:fd:dc:96:de:91:0c:3c:3e:
                    c1:cf:65:c5:c6:b3:09:ea:c6:4d:d9:48:22:b8:33:
                    85:db:09:ef:d5:9f:35:4a:21:68:1d:2c:ca:2b:7a:
                    2b:72:e5:6b:cf:47:7c:2f:b4:68:b6:06:90:7e:0b:
                    75:8b:f7:c7:e9:5f:44:c9:24:80:41:7b:12:fa:db:
                    6c:a8:49:21:f5:7e:04:47:b0:78:b2:47:18:2a:e1:
                    81:8f:7f:22:88:e6:e5:52:d9:3b:cb:ef:61:d9:e0:
                    ef:a9:b3:cf:1e:75:ec:9d:8b:6c:7f:b9:46:d8:dd:
                    cd:6c:b0:c4:0c:e4:8c:4d:94:6d:c2:cb:8b:1c:5f:
                    e9:2c:82:de:66:63:ce:fa:0c:9e:0d:0a:c3:de:67:
                    6a:1b
                Exponent: 65537 (0x10001)
        Attributes:
        Requested Extensions:
            X509v3 Key Usage: critical
                Digital Signature
            X509v3 Extended Key Usage: 
                TLS Web Client Authentication
            X509v3 Basic Constraints: critical
                CA:FALSE
            X509v3 Subject Key Identifier: 
                DF:12:BA:45:35:3E:88:33:44:CF:98:4D:0E:2B:FB:46:55:B1:70:52
    Signature Algorithm: sha512WithRSAEncryption
         1e:f0:c5:fc:9b:0f:9b:68:16:a7:b0:fe:cc:2d:81:b5:c8:f1:
         07:ce:49:fb:5c:68:50:1d:09:b9:f6:22:4f:5b:a3:f5:21:71:
         ad:cb:7e:51:a5:80:27:99:b0:7b:3d:6c:83:0e:8b:5a:57:3f:
         c1:bd:cf:37:c7:9b:09:f1:9c:e0:9e:a8:e7:33:35:25:5e:fe:
         d6:6a:7d:b5:77:e8:93:5e:3e:af:e6:77:70:69:eb:af:be:f5:
         e9:73:f7:8f:a8:03:c0:7d:ff:71:61:1e:ff:77:48:10:65:1a:
         3a:c6:93:aa:69:37:78:66:24:7a:1b:47:6b:dc:06:f9:3c:b7:
         32:ad:92:6d:19:f9:0c:b4:9d:ad:7d:4e:c1:c9:87:62:56:eb:
         1a:18:f1:d5:06:c6:68:3a:db:fe:26:7c:8a:89:c8:50:ef:58:
         de:cd:94:ee:37:c6:7b:57:39:a6:65:91:57:2e:58:c8:03:1b:
         9f:a5:1a:9f:61:77:ef:ed:00:44:55:b4:76:1c:c7:ee:4c:6e:
         77:7b:15:03:74:72:db:29:1e:2b:1e:53:4f:0b:aa:3e:78:7c:
         41:99:ff:7a:68:60:2f:51:6c:a4:24:f0:78:8b:98:8e:3b:51:
         0c:df:22:78:85:0f:ff:1c:b8:48:2a:07:44:4a:8d:73:bb:f2:
         04:7a:b0:3b
-----BEGIN CERTIFICATE REQUEST-----
MIIC/jCCAeYCAQAwVjELMAkGA1UEBhMCRVMxDTALBgNVBAoMBGNpbmkxETAPBgNV
BCoMCEdpb3Zhbm5pMQ8wDQYDVQQEDAZNYXp6ZW8xFDASBgNVBAMMC2Npbmkub3Jn
LmVzMIIBIjANBgkqhkiG9w0BAQEFAAOCAQ8AMIIBCgKCAQEAxvfVplpIH79+wnoE
KyY0soKO86dPxaubIsu09yRxLKgAHQhFjkSqgPdQKxXXiHR4r6JQ6qulnduQ26Vh
QwSXKMtUjtlBd0QQg6nR8KgSxAGNQXd4v9nyXIYJwUBHvSt+9bA/2iRAaBNMMenb
vbXq/dyW3pEMPD7Bz2XFxrMJ6sZN2UgiuDOF2wnv1Z81SiFoHSzKK3orcuVrz0d8
L7RotgaQfgt1i/fH6V9EySSAQXsS+ttsqEkh9X4ER7B4skcYKuGBj38iiOblUtk7
y+9h2eDvqbPPHnXsnYtsf7lG2N3NbLDEDOSMTZRtwsuLHF/pLILeZmPO+gyeDQrD
3mdqGwIDAQABoGMwYQYJKoZIhvcNAQkOMVQwUjAOBgNVHQ8BAf8EBAMCB4AwEwYD
VR0lBAwwCgYIKwYBBQUHAwIwDAYDVR0TAQH/BAIwADAdBgNVHQ4EFgQU3xK6RTU+
iDNEz5hNDiv7RlWxcFIwDQYJKoZIhvcNAQENBQADggEBAB7wxfybD5toFqew/swt
gbXI8QfOSftcaFAdCbn2Ik9bo/Uhca3LflGlgCeZsHs9bIMOi1pXP8G9zzfHmwnx
nOCeqOczNSVe/tZqfbV36JNePq/md3Bp66++9elz94+oA8B9/3FhHv93SBBlGjrG
k6ppN3hmJHobR2vcBvk8tzKtkm0Z+Qy0na19TsHJh2JW6xoY8dUGxmg62/4mfIqJ
yFDvWN7NlO43xntXOaZlkVcuWMgDG5+lGp9hd+/tAERVtHYcx+5Mbnd7FQN0ctsp
HiseU08Lqj54fEGZ/3poYC9RbKQk8HiLmI47UQzfIniFD/8cuEgqB0RKjXO78gR6
sDs=
-----END CERTIFICATE REQUEST-----
