Certificate Request:
    Data:
        Version: 1 (0x0)
        Subject: C = ES, O = cini, GN = Giovanni, SN = Mazzeo, CN = cini.org.es
        Subject Public Key Info:
            Public Key Algorithm: rsaEncryption
                RSA Public-Key: (2048 bit)
                Modulus:
                    00:bf:9f:88:09:10:62:20:0a:d8:5f:74:e9:bc:3a:
                    3d:25:4c:91:cd:c9:8c:dd:fc:b0:53:c5:3d:0f:40:
                    75:5c:0e:55:e3:f9:31:eb:01:9e:39:0f:36:33:ca:
                    4b:13:f2:52:4e:9e:a9:91:6e:55:bb:00:54:cf:7a:
                    80:e3:b3:a8:10:95:37:2a:2f:b5:2f:03:9e:0c:3c:
                    49:7a:9b:25:75:47:4b:87:4e:06:d4:bb:bc:83:6a:
                    8e:a2:d7:b3:5e:a9:01:bf:a0:9b:b4:9e:e3:e0:86:
                    c3:2f:8b:07:d9:fd:d2:f1:2b:fc:3c:e0:39:ba:08:
                    31:bc:9b:3a:f2:aa:96:6f:50:9d:ec:aa:c6:5c:66:
                    43:91:b6:cb:9d:10:62:34:ae:50:6f:8f:fb:fe:b3:
                    de:ba:1f:01:96:59:2a:93:f8:75:74:85:b7:da:13:
                    ad:58:a1:44:34:e4:a8:25:1d:ac:be:f1:99:a3:dd:
                    59:4b:15:c8:3c:dc:61:b3:82:b4:85:98:76:a7:4f:
                    7d:82:58:06:ce:d2:ba:3c:29:4c:3f:08:78:08:59:
                    cd:7d:42:14:f7:0f:2f:37:de:f1:a1:38:33:7f:2f:
                    08:7e:09:8b:41:43:29:91:fe:84:9a:a1:1f:f1:a4:
                    83:63:78:51:53:cd:fd:dc:87:78:fa:a0:e1:71:46:
                    f7:73
                Exponent: 65537 (0x10001)
        Attributes:
        Requested Extensions:
            X509v3 Key Usage: critical
                Digital Signature
            X509v3 Extended Key Usage: 
                TLS Web Client Authentication
            X509v3 Basic Constraints: critical
                CA:FALSE
            X509v3 Subject Key Identifier: 
                40:9F:C8:1E:37:A1:74:B6:20:76:64:58:6B:82:17:4F:F6:BE:49:08
    Signature Algorithm: sha512WithRSAEncryption
         1d:6c:ca:70:0f:03:74:bd:11:cf:ae:d2:22:ed:ea:a0:1c:91:
         a7:ba:25:80:78:f9:e7:ea:a0:67:59:8e:44:8f:00:19:4d:0b:
         62:f2:71:11:a1:86:d7:06:0a:9b:9e:31:35:6c:00:96:41:4f:
         f1:37:82:c9:d9:56:55:31:f0:61:40:62:0b:e3:14:3e:fc:03:
         30:52:4e:0f:fb:57:ba:78:4d:af:45:71:59:0e:9a:9c:04:1b:
         94:0d:02:a5:88:13:a1:87:87:8f:f7:47:1d:cc:5f:44:ec:92:
         9c:d9:a8:b1:a3:f8:ab:da:40:51:bf:25:45:77:2b:db:8a:02:
         45:c5:46:29:c1:d6:1a:24:32:19:49:9e:64:7e:f8:6b:5e:d4:
         8f:14:a7:68:b7:41:49:06:3c:01:ad:f7:ba:9d:6e:69:46:7c:
         93:86:a2:7c:dc:86:63:94:d9:7a:30:b9:8d:1d:27:21:d0:1b:
         9e:ba:af:76:c9:c6:6b:24:f3:08:16:3c:39:38:ae:9d:50:e7:
         48:ad:5d:59:47:56:3a:66:69:93:f1:84:38:10:3d:f6:ce:90:
         e6:15:0e:ed:0c:b4:4c:f2:99:07:1a:a6:55:0a:88:ec:2c:fb:
         0c:b4:3f:3e:92:38:38:62:ad:bd:09:d2:e2:17:96:57:6d:21:
         cd:35:56:7c
-----BEGIN CERTIFICATE REQUEST-----
MIIC/jCCAeYCAQAwVjELMAkGA1UEBhMCRVMxDTALBgNVBAoMBGNpbmkxETAPBgNV
BCoMCEdpb3Zhbm5pMQ8wDQYDVQQEDAZNYXp6ZW8xFDASBgNVBAMMC2Npbmkub3Jn
LmVzMIIBIjANBgkqhkiG9w0BAQEFAAOCAQ8AMIIBCgKCAQEAv5+ICRBiIArYX3Tp
vDo9JUyRzcmM3fywU8U9D0B1XA5V4/kx6wGeOQ82M8pLE/JSTp6pkW5VuwBUz3qA
47OoEJU3Ki+1LwOeDDxJepsldUdLh04G1Lu8g2qOotezXqkBv6CbtJ7j4IbDL4sH
2f3S8Sv8POA5uggxvJs68qqWb1Cd7KrGXGZDkbbLnRBiNK5Qb4/7/rPeuh8Bllkq
k/h1dIW32hOtWKFENOSoJR2svvGZo91ZSxXIPNxhs4K0hZh2p099glgGztK6PClM
Pwh4CFnNfUIU9w8vN97xoTgzfy8IfgmLQUMpkf6EmqEf8aSDY3hRU8393Id4+qDh
cUb3cwIDAQABoGMwYQYJKoZIhvcNAQkOMVQwUjAOBgNVHQ8BAf8EBAMCB4AwEwYD
VR0lBAwwCgYIKwYBBQUHAwIwDAYDVR0TAQH/BAIwADAdBgNVHQ4EFgQUQJ/IHjeh
dLYgdmRYa4IXT/a+SQgwDQYJKoZIhvcNAQENBQADggEBAB1synAPA3S9Ec+u0iLt
6qAckae6JYB4+efqoGdZjkSPABlNC2LycRGhhtcGCpueMTVsAJZBT/E3gsnZVlUx
8GFAYgvjFD78AzBSTg/7V7p4Ta9FcVkOmpwEG5QNAqWIE6GHh4/3Rx3MX0TskpzZ
qLGj+KvaQFG/JUV3K9uKAkXFRinB1hokMhlJnmR++Gte1I8Up2i3QUkGPAGt97qd
bmlGfJOGonzchmOU2XowuY0dJyHQG566r3bJxmsk8wgWPDk4rp1Q50itXVlHVjpm
aZPxhDgQPfbOkOYVDu0MtEzymQcaplUKiOws+wy0Pz6SODhirb0J0uIXlldtIc01
Vnw=
-----END CERTIFICATE REQUEST-----
