Certificate Request:
    Data:
        Version: 1 (0x0)
        Subject: C = ES, O = cini, GN = Giovanni, SN = Mazzeo, CN = cini.org.es
        Subject Public Key Info:
            Public Key Algorithm: rsaEncryption
                RSA Public-Key: (2048 bit)
                Modulus:
                    00:c3:81:81:48:1d:c6:5c:b7:ac:be:96:74:35:4d:
                    e2:6e:0a:3b:92:1c:c5:c9:22:ab:87:eb:54:77:cf:
                    1a:4a:65:3e:ae:a4:ff:44:5b:c5:31:d9:47:39:aa:
                    42:71:12:19:85:8b:6f:28:15:ef:05:26:0d:5f:8c:
                    64:30:7a:61:17:10:41:66:4c:3d:90:21:19:28:ae:
                    bd:48:e6:a6:37:80:98:94:bd:a9:c2:aa:93:80:3f:
                    ec:1f:39:cf:af:92:8a:9c:87:d4:49:c3:3b:4b:be:
                    15:76:75:30:21:f4:92:6d:8e:a9:77:82:d9:ff:a8:
                    f2:c7:a2:f0:17:95:2d:17:dc:af:94:72:c9:61:84:
                    38:c2:f7:e9:d7:07:26:72:8c:28:c1:ce:28:62:8d:
                    62:7d:18:b9:34:a5:c2:af:8e:b1:53:6c:1e:35:87:
                    d7:bc:f5:16:c7:cd:07:ee:03:6f:b1:3c:a0:50:a2:
                    04:cb:dd:f1:7e:84:75:b9:82:ae:2b:f6:85:ae:ec:
                    9e:ae:9d:2c:a6:92:4f:34:0e:e5:e4:fc:10:91:5b:
                    4a:79:75:08:89:a6:46:22:04:c3:77:d7:12:35:82:
                    4d:f3:c0:b0:50:bd:68:0c:e6:27:8a:ab:e5:d0:c9:
                    d9:87:3b:d0:11:45:8a:52:50:95:ad:5f:d8:6c:15:
                    b8:cd
                Exponent: 65537 (0x10001)
        Attributes:
        Requested Extensions:
            X509v3 Key Usage: critical
                Digital Signature, Non Repudiation
            X509v3 Basic Constraints: critical
                CA:FALSE
            X509v3 Subject Key Identifier: 
                2A:43:6E:76:A7:65:2C:05:CA:52:D9:4F:23:F6:26:99:10:32:89:CD
    Signature Algorithm: sha512WithRSAEncryption
         05:67:a9:b9:aa:38:83:2f:ec:33:62:2e:4f:6d:12:cf:cc:a6:
         33:2e:d4:b6:15:d2:08:8e:8a:db:61:29:dd:2c:b3:0f:ac:69:
         dd:7b:cb:e1:de:48:60:9d:03:43:20:eb:b8:fb:3b:52:c4:ad:
         f0:f2:af:2f:77:07:7c:66:5a:f5:3c:8c:0e:b0:25:cb:a6:8e:
         a9:ba:f1:de:0b:42:8e:c8:91:92:8c:94:0d:0f:ef:cb:bb:4b:
         2d:fc:da:83:b5:64:96:1d:65:57:35:4f:9c:2a:ca:c4:6f:e4:
         24:63:f3:ca:97:21:63:66:0a:75:2e:17:ee:fd:cf:3d:dc:23:
         1b:f6:bc:ab:e1:3a:73:90:38:47:41:33:17:5c:b2:f4:4f:6e:
         28:2d:94:fe:a7:d9:cb:f0:5f:0b:af:87:68:14:c4:b1:2b:37:
         ba:b7:83:5d:23:d1:70:c3:65:ff:95:91:77:cd:a9:8e:40:46:
         4b:86:80:16:fd:d7:84:89:f2:80:4d:b7:8c:8a:08:65:f0:02:
         7c:a2:70:8f:16:0a:82:72:34:0d:8e:da:4a:99:99:c2:6a:00:
         6a:1d:06:39:15:ef:f0:13:ab:66:90:74:c2:08:e3:4b:ec:cc:
         b9:30:c7:5a:9b:9d:e5:88:2a:b5:7c:8a:e4:54:24:43:0b:cb:
         e8:39:70:68
-----BEGIN CERTIFICATE REQUEST-----
MIIC6TCCAdECAQAwVjELMAkGA1UEBhMCRVMxDTALBgNVBAoMBGNpbmkxETAPBgNV
BCoMCEdpb3Zhbm5pMQ8wDQYDVQQEDAZNYXp6ZW8xFDASBgNVBAMMC2Npbmkub3Jn
LmVzMIIBIjANBgkqhkiG9w0BAQEFAAOCAQ8AMIIBCgKCAQEAw4GBSB3GXLesvpZ0
NU3ibgo7khzFySKrh+tUd88aSmU+rqT/RFvFMdlHOapCcRIZhYtvKBXvBSYNX4xk
MHphFxBBZkw9kCEZKK69SOamN4CYlL2pwqqTgD/sHznPr5KKnIfUScM7S74VdnUw
IfSSbY6pd4LZ/6jyx6LwF5UtF9yvlHLJYYQ4wvfp1wcmcowowc4oYo1ifRi5NKXC
r46xU2weNYfXvPUWx80H7gNvsTygUKIEy93xfoR1uYKuK/aFruyerp0sppJPNA7l
5PwQkVtKeXUIiaZGIgTDd9cSNYJN88CwUL1oDOYniqvl0MnZhzvQEUWKUlCVrV/Y
bBW4zQIDAQABoE4wTAYJKoZIhvcNAQkOMT8wPTAOBgNVHQ8BAf8EBAMCBsAwDAYD
VR0TAQH/BAIwADAdBgNVHQ4EFgQUKkNudqdlLAXKUtlPI/YmmRAyic0wDQYJKoZI
hvcNAQENBQADggEBAAVnqbmqOIMv7DNiLk9tEs/MpjMu1LYV0giOitthKd0ssw+s
ad17y+HeSGCdA0Mg67j7O1LErfDyry93B3xmWvU8jA6wJcumjqm68d4LQo7IkZKM
lA0P78u7Sy382oO1ZJYdZVc1T5wqysRv5CRj88qXIWNmCnUuF+79zz3cIxv2vKvh
OnOQOEdBMxdcsvRPbigtlP6n2cvwXwuvh2gUxLErN7q3g10j0XDDZf+VkXfNqY5A
RkuGgBb914SJ8oBNt4yKCGXwAnyicI8WCoJyNA2O2kqZmcJqAGodBjkV7/ATq2aQ
dMII40vszLkwx1qbneWIKrV8iuRUJEMLy+g5cGg=
-----END CERTIFICATE REQUEST-----
