Certificate Request:
    Data:
        Version: 1 (0x0)
        Subject: C = ES, O = cini, GN = Giovanni, SN = Mazzeo, CN = cini.org.es
        Subject Public Key Info:
            Public Key Algorithm: rsaEncryption
                RSA Public-Key: (2048 bit)
                Modulus:
                    00:b6:58:56:98:df:1d:fa:c0:31:3c:1d:cd:a5:37:
                    7c:11:a4:4d:7c:54:9c:77:c7:eb:07:37:a1:b3:11:
                    13:30:84:49:e7:e8:a7:04:18:af:18:62:4d:d6:31:
                    8b:84:19:2c:db:27:dc:ad:fe:a4:b1:c3:4b:a4:da:
                    65:6f:ed:f0:38:02:79:8d:be:f7:c8:31:88:62:a8:
                    cb:6a:44:c5:ec:a3:6f:31:ab:97:10:98:2e:9b:e9:
                    a4:f0:f4:2d:8f:b7:29:c1:7c:21:1f:c4:05:a5:51:
                    80:c1:33:9e:6b:0f:d2:b6:04:db:46:99:9d:ef:a7:
                    79:41:6d:75:ad:7c:56:0b:68:9e:f4:ab:a6:9a:32:
                    4f:07:eb:a0:63:04:64:e7:d9:54:87:36:b1:6a:22:
                    d1:bd:c8:ff:d5:11:83:4b:f7:de:81:b4:7b:5e:4f:
                    73:f3:7d:e7:09:b8:ae:69:aa:b6:35:30:b7:d1:5e:
                    5d:40:87:9e:28:f3:e0:09:80:c9:e8:64:54:56:ff:
                    55:05:17:57:52:f0:bd:4b:97:ca:86:94:17:bb:8a:
                    35:56:be:92:fb:73:97:77:c8:69:cd:37:e6:0b:14:
                    3c:24:dd:b0:d1:6a:27:ee:0b:3a:8d:9b:66:7e:3a:
                    b1:6c:9a:1f:55:f0:ad:ad:fa:4a:26:4e:b9:39:bf:
                    19:d9
                Exponent: 65537 (0x10001)
        Attributes:
        Requested Extensions:
            X509v3 Key Usage: critical
                Key Encipherment
            X509v3 Extended Key Usage: 
                TLS Web Server Authentication
            X509v3 Basic Constraints: critical
                CA:FALSE
            X509v3 Subject Key Identifier: 
                63:9C:A6:84:BC:EA:07:5A:B7:DA:5C:1A:4E:1C:98:70:82:EE:A9:99
    Signature Algorithm: sha512WithRSAEncryption
         0d:13:e7:a6:4e:d0:40:fe:86:a2:87:4f:e0:2b:43:c7:42:35:
         2e:e0:0f:0d:dc:8a:6d:82:0e:cb:cb:7b:ed:30:57:e2:61:21:
         33:f0:27:96:37:00:2c:5e:a0:69:7d:44:75:c4:be:4a:da:8d:
         a2:a8:2c:ad:bc:6c:ad:48:59:39:3e:a0:04:ad:6f:95:f6:41:
         95:10:4e:6a:5b:ff:f0:93:ba:02:49:c3:c9:aa:9b:82:f3:dc:
         16:fa:ab:c0:ca:80:02:70:2e:e4:db:0e:20:7a:66:bc:8c:d5:
         cf:f2:56:f6:1c:46:b7:eb:57:85:74:14:f8:3c:cc:80:cc:e9:
         fd:c2:00:da:7a:dd:35:f6:e1:e8:9b:53:59:e0:90:88:53:11:
         8a:79:2d:d0:8d:e4:6b:3a:09:9c:79:2c:af:73:c7:5b:d3:74:
         79:6d:a3:82:3a:fc:98:93:03:56:3d:73:4a:c1:c6:97:2b:f4:
         5e:e5:e9:fc:25:12:97:9e:55:48:a6:67:7b:7a:ae:67:fc:9c:
         5a:de:21:fc:a7:e7:45:63:d4:95:ab:90:60:51:b9:02:62:36:
         f7:55:4e:a3:55:b2:88:cc:1e:c1:ed:d2:8b:5a:39:aa:04:3f:
         e9:48:97:e0:35:d7:29:81:16:23:a7:b6:ed:49:5c:43:25:87:
         b3:c0:0b:45
-----BEGIN CERTIFICATE REQUEST-----
MIIC/jCCAeYCAQAwVjELMAkGA1UEBhMCRVMxDTALBgNVBAoMBGNpbmkxETAPBgNV
BCoMCEdpb3Zhbm5pMQ8wDQYDVQQEDAZNYXp6ZW8xFDASBgNVBAMMC2Npbmkub3Jn
LmVzMIIBIjANBgkqhkiG9w0BAQEFAAOCAQ8AMIIBCgKCAQEAtlhWmN8d+sAxPB3N
pTd8EaRNfFScd8frBzehsxETMIRJ5+inBBivGGJN1jGLhBks2yfcrf6kscNLpNpl
b+3wOAJ5jb73yDGIYqjLakTF7KNvMauXEJgum+mk8PQtj7cpwXwhH8QFpVGAwTOe
aw/StgTbRpmd76d5QW11rXxWC2ie9KummjJPB+ugYwRk59lUhzaxaiLRvcj/1RGD
S/fegbR7Xk9z833nCbiuaaq2NTC30V5dQIeeKPPgCYDJ6GRUVv9VBRdXUvC9S5fK
hpQXu4o1Vr6S+3OXd8hpzTfmCxQ8JN2w0Won7gs6jZtmfjqxbJofVfCtrfpKJk65
Ob8Z2QIDAQABoGMwYQYJKoZIhvcNAQkOMVQwUjAOBgNVHQ8BAf8EBAMCBSAwEwYD
VR0lBAwwCgYIKwYBBQUHAwEwDAYDVR0TAQH/BAIwADAdBgNVHQ4EFgQUY5ymhLzq
B1q32lwaThyYcILuqZkwDQYJKoZIhvcNAQENBQADggEBAA0T56ZO0ED+hqKHT+Ar
Q8dCNS7gDw3cim2CDsvLe+0wV+JhITPwJ5Y3ACxeoGl9RHXEvkrajaKoLK28bK1I
WTk+oAStb5X2QZUQTmpb//CTugJJw8mqm4Lz3Bb6q8DKgAJwLuTbDiB6ZryM1c/y
VvYcRrfrV4V0FPg8zIDM6f3CANp63TX24eibU1ngkIhTEYp5LdCN5Gs6CZx5LK9z
x1vTdHlto4I6/JiTA1Y9c0rBxpcr9F7l6fwlEpeeVUimZ3t6rmf8nFreIfyn50Vj
1JWrkGBRuQJiNvdVTqNVsojMHsHt0otaOaoEP+lIl+A11ymBFiOntu1JXEMlh7PA
C0U=
-----END CERTIFICATE REQUEST-----
