Certificate Request:
    Data:
        Version: 1 (0x0)
        Subject: C = ES, O = cini, GN = Giovanni, SN = Mazzeo, CN = cini.org.es
        Subject Public Key Info:
            Public Key Algorithm: rsaEncryption
                RSA Public-Key: (2048 bit)
                Modulus:
                    00:b0:ba:1f:13:19:db:34:8c:9c:f1:ca:50:16:38:
                    32:fe:49:67:3d:22:28:72:9b:fd:9b:cd:9b:3f:4b:
                    42:c1:3f:2d:ed:13:88:e3:0f:15:67:e4:7b:7e:97:
                    71:57:2f:23:8f:1a:12:ab:cf:cc:b9:5a:47:f9:8e:
                    dc:d7:3f:6e:03:14:12:1d:9b:7a:a6:4f:04:ab:07:
                    7a:5a:34:d2:fc:fd:39:03:18:aa:33:c5:f0:02:c1:
                    e1:82:dd:36:e7:8f:b7:00:68:fd:d0:6e:60:26:86:
                    5e:4c:36:50:c0:e2:4c:67:09:55:c9:b0:e9:a0:39:
                    2d:7b:63:d9:7f:6c:eb:0e:d2:47:b0:35:c1:c7:44:
                    af:b2:ad:1e:eb:8d:7a:be:a5:ba:21:46:92:80:7e:
                    19:4b:1e:71:d6:db:d3:01:fe:b3:52:3b:0a:07:79:
                    d0:96:bc:ce:eb:a7:1d:16:4c:c9:24:65:af:76:1b:
                    c4:76:87:3a:31:72:26:20:7e:ab:43:44:98:66:72:
                    96:01:11:3e:11:a3:cd:47:b2:ed:79:ad:0b:22:b6:
                    aa:3a:af:d9:9f:df:4e:6c:f1:12:e8:93:c4:5e:45:
                    2e:31:e0:37:74:3d:c0:00:9e:63:a8:22:10:36:78:
                    db:26:46:fd:21:51:90:b9:c7:7b:6a:bc:46:cc:2f:
                    1b:e7
                Exponent: 65537 (0x10001)
        Attributes:
        Requested Extensions:
            X509v3 Key Usage: critical
                Non Repudiation
            X509v3 Extended Key Usage: 
                OCSP Signing
            X509v3 Basic Constraints: critical
                CA:FALSE
            X509v3 Subject Key Identifier: 
                EA:37:01:62:87:7F:B7:6C:6E:48:7A:66:1E:2F:25:E7:04:1E:0C:C6
    Signature Algorithm: sha512WithRSAEncryption
         80:5f:af:f0:42:65:cb:63:2d:3e:3b:b7:88:36:50:e6:d4:98:
         b9:ef:f5:65:a1:29:65:84:9d:0b:13:64:75:bc:76:5a:8c:28:
         df:d4:9d:ab:58:f7:8e:1b:7e:9e:9c:ac:c8:6d:d9:22:cf:bf:
         a7:ed:fe:d0:8e:6f:a2:39:67:21:8e:88:f2:ef:94:27:59:90:
         a5:ff:e4:45:76:3a:ab:7b:87:7e:f9:95:19:e0:77:5b:74:61:
         ea:eb:60:40:a2:72:45:d2:a3:cf:68:e4:17:05:e0:17:e4:63:
         d0:06:78:d3:9c:27:2c:37:92:6b:ff:ea:cc:96:1b:78:e3:32:
         9d:17:d4:a6:a2:51:fa:ed:24:82:bf:1f:a1:99:b9:09:7c:c9:
         07:ee:8a:d9:5a:5a:b9:de:eb:bd:bd:c9:98:80:06:21:5e:7d:
         02:cf:e5:5e:e6:a2:1e:de:62:5b:6f:cb:fe:07:50:d1:b3:ae:
         a9:fe:88:22:74:3e:fc:e4:16:11:1e:d8:25:11:05:47:44:fa:
         1d:b4:28:da:81:41:e4:7d:c6:d0:9c:36:22:c3:fe:be:b5:73:
         ec:e0:5e:ad:d2:6c:33:74:e1:4e:60:1e:d1:b1:df:3f:5e:f1:
         02:1a:9b:48:a6:a3:37:96:0d:ec:c9:02:df:98:a6:f4:88:f0:
         a9:4d:fe:45
-----BEGIN CERTIFICATE REQUEST-----
MIIC/jCCAeYCAQAwVjELMAkGA1UEBhMCRVMxDTALBgNVBAoMBGNpbmkxETAPBgNV
BCoMCEdpb3Zhbm5pMQ8wDQYDVQQEDAZNYXp6ZW8xFDASBgNVBAMMC2Npbmkub3Jn
LmVzMIIBIjANBgkqhkiG9w0BAQEFAAOCAQ8AMIIBCgKCAQEAsLofExnbNIyc8cpQ
Fjgy/klnPSIocpv9m82bP0tCwT8t7ROI4w8VZ+R7fpdxVy8jjxoSq8/MuVpH+Y7c
1z9uAxQSHZt6pk8Eqwd6WjTS/P05AxiqM8XwAsHhgt0254+3AGj90G5gJoZeTDZQ
wOJMZwlVybDpoDkte2PZf2zrDtJHsDXBx0Svsq0e6416vqW6IUaSgH4ZSx5x1tvT
Af6zUjsKB3nQlrzO66cdFkzJJGWvdhvEdoc6MXImIH6rQ0SYZnKWARE+EaPNR7Lt
ea0LIraqOq/Zn99ObPES6JPEXkUuMeA3dD3AAJ5jqCIQNnjbJkb9IVGQucd7arxG
zC8b5wIDAQABoGMwYQYJKoZIhvcNAQkOMVQwUjAOBgNVHQ8BAf8EBAMCBkAwEwYD
VR0lBAwwCgYIKwYBBQUHAwkwDAYDVR0TAQH/BAIwADAdBgNVHQ4EFgQU6jcBYod/
t2xuSHpmHi8l5wQeDMYwDQYJKoZIhvcNAQENBQADggEBAIBfr/BCZctjLT47t4g2
UObUmLnv9WWhKWWEnQsTZHW8dlqMKN/UnatY944bfp6crMht2SLPv6ft/tCOb6I5
ZyGOiPLvlCdZkKX/5EV2Oqt7h375lRngd1t0YerrYECickXSo89o5BcF4BfkY9AG
eNOcJyw3kmv/6syWG3jjMp0X1KaiUfrtJIK/H6GZuQl8yQfuitlaWrne6729yZiA
BiFefQLP5V7moh7eYltvy/4HUNGzrqn+iCJ0PvzkFhEe2CURBUdE+h20KNqBQeR9
xtCcNiLD/r61c+zgXq3SbDN04U5gHtGx3z9e8QIam0imozeWDezJAt+YpvSI8KlN
/kU=
-----END CERTIFICATE REQUEST-----
