Certificate Request:
    Data:
        Version: 1 (0x0)
        Subject: C = ES, O = cini, GN = Giovanni, SN = Mazzeo, CN = cini.org.es
        Subject Public Key Info:
            Public Key Algorithm: rsaEncryption
                RSA Public-Key: (2048 bit)
                Modulus:
                    00:b7:15:2a:26:fa:ea:5e:c9:da:6c:13:21:3d:68:
                    42:8d:79:a6:10:0c:7a:f2:d7:ad:09:66:be:de:e9:
                    4e:6b:c5:4d:c0:cb:5c:89:47:e1:a9:a1:a5:49:63:
                    90:2a:e8:c9:36:00:75:70:d9:23:bd:49:c4:32:ec:
                    ad:05:ba:8b:81:0b:ef:c3:a7:57:3f:e6:ad:27:5b:
                    4a:a6:d4:0f:6b:ad:39:d7:0b:78:7f:e8:71:3e:a2:
                    9f:25:d3:d9:d4:66:f0:74:69:42:12:ff:b9:60:25:
                    e4:82:f5:d9:f3:a4:21:23:f2:46:36:60:31:ed:79:
                    37:70:9b:9f:bf:c8:25:4b:39:51:a4:8b:86:8b:44:
                    75:3a:7a:1b:cf:59:4f:b7:ea:40:38:92:7a:71:9e:
                    88:5b:17:e1:c2:f5:19:cb:47:01:d4:b2:24:17:22:
                    31:41:62:e9:76:b3:b1:76:38:91:7c:51:b9:66:5e:
                    3d:74:93:9f:4f:b2:46:23:27:63:c4:70:55:e6:9f:
                    c1:19:ed:73:3f:af:48:13:45:d4:48:e4:21:9e:fc:
                    af:20:d0:dd:ab:f4:4e:0d:b1:f2:80:b4:76:3c:15:
                    b7:82:77:c9:31:25:d5:b5:2d:73:a5:d2:b6:03:97:
                    ef:82:e9:be:41:3c:73:25:80:88:7d:93:1a:01:36:
                    e4:a3
                Exponent: 65537 (0x10001)
        Attributes:
        Requested Extensions:
            X509v3 Key Usage: critical
                Key Encipherment
            X509v3 Extended Key Usage: 
                TLS Web Server Authentication
            X509v3 Basic Constraints: critical
                CA:FALSE
            X509v3 Subject Key Identifier: 
                B8:90:DE:E6:09:D0:B1:D2:2C:3C:63:35:9E:2F:D8:AB:44:CF:89:2B
    Signature Algorithm: sha512WithRSAEncryption
         3d:88:b2:7c:01:2b:0b:11:b3:72:1b:8d:4e:bb:02:9f:26:f4:
         7b:66:5e:0c:f2:2e:e0:64:80:5f:02:a1:65:f1:5e:67:f9:fa:
         23:81:3d:95:26:86:45:24:2d:9d:53:c1:96:80:9b:55:e5:8d:
         88:3a:80:59:b3:1f:63:dc:3e:66:f6:c9:bb:b2:e9:fa:9a:66:
         33:27:03:0d:1d:95:09:69:ae:d3:9b:b8:7d:16:a2:4d:e1:b9:
         1f:b2:bc:f5:eb:36:ef:a7:ac:8c:1b:a4:48:e8:bc:c0:87:d9:
         8c:23:60:fd:6f:ca:84:26:90:66:c2:fa:da:a6:1d:2e:f8:ad:
         a4:de:59:df:93:70:f7:f3:9f:55:72:e2:96:4a:79:13:fa:28:
         5a:0b:f9:0d:d9:89:25:01:58:ff:92:09:e6:81:92:bf:e9:e1:
         ad:ca:f5:61:1f:d8:43:53:12:9a:84:2b:f9:c7:4b:41:f1:36:
         f3:39:ca:43:75:33:1a:12:b3:42:cf:7a:9e:ac:f9:fc:12:da:
         b5:fd:4f:08:b2:63:a8:2c:8c:39:71:08:f3:3a:51:92:72:94:
         d1:77:12:a9:58:44:20:18:7e:8f:b4:f5:42:95:a2:d0:7e:29:
         25:f6:be:dc:f4:d4:aa:c2:66:6c:b0:de:b9:a5:a2:1f:1a:32:
         fc:f1:b2:25
-----BEGIN CERTIFICATE REQUEST-----
MIIC/jCCAeYCAQAwVjELMAkGA1UEBhMCRVMxDTALBgNVBAoMBGNpbmkxETAPBgNV
BCoMCEdpb3Zhbm5pMQ8wDQYDVQQEDAZNYXp6ZW8xFDASBgNVBAMMC2Npbmkub3Jn
LmVzMIIBIjANBgkqhkiG9w0BAQEFAAOCAQ8AMIIBCgKCAQEAtxUqJvrqXsnabBMh
PWhCjXmmEAx68tetCWa+3ulOa8VNwMtciUfhqaGlSWOQKujJNgB1cNkjvUnEMuyt
BbqLgQvvw6dXP+atJ1tKptQPa6051wt4f+hxPqKfJdPZ1GbwdGlCEv+5YCXkgvXZ
86QhI/JGNmAx7Xk3cJufv8glSzlRpIuGi0R1Onobz1lPt+pAOJJ6cZ6IWxfhwvUZ
y0cB1LIkFyIxQWLpdrOxdjiRfFG5Zl49dJOfT7JGIydjxHBV5p/BGe1zP69IE0XU
SOQhnvyvINDdq/RODbHygLR2PBW3gnfJMSXVtS1zpdK2A5fvgum+QTxzJYCIfZMa
ATbkowIDAQABoGMwYQYJKoZIhvcNAQkOMVQwUjAOBgNVHQ8BAf8EBAMCBSAwEwYD
VR0lBAwwCgYIKwYBBQUHAwEwDAYDVR0TAQH/BAIwADAdBgNVHQ4EFgQUuJDe5gnQ
sdIsPGM1ni/Yq0TPiSswDQYJKoZIhvcNAQENBQADggEBAD2IsnwBKwsRs3IbjU67
Ap8m9HtmXgzyLuBkgF8CoWXxXmf5+iOBPZUmhkUkLZ1TwZaAm1XljYg6gFmzH2Pc
Pmb2ybuy6fqaZjMnAw0dlQlprtObuH0Wok3huR+yvPXrNu+nrIwbpEjovMCH2Ywj
YP1vyoQmkGbC+tqmHS74raTeWd+TcPfzn1Vy4pZKeRP6KFoL+Q3ZiSUBWP+SCeaB
kr/p4a3K9WEf2ENTEpqEK/nHS0HxNvM5ykN1MxoSs0LPep6s+fwS2rX9TwiyY6gs
jDlxCPM6UZJylNF3EqlYRCAYfo+09UKVotB+KSX2vtz01KrCZmyw3rmloh8aMvzx
siU=
-----END CERTIFICATE REQUEST-----
